(dp1
S'110004'
p2
S'Samba'
p3
sS'110005'
p4
S'Samba'
p5
sS'110006'
p6
S'Samba'
p7
sS'110007'
p8
S'Chacha'
p9
sS'110001'
p10
S'Samba'
p11
sS'110002'
p12
S'Samba'
p13
sS'110003'
p14
S'Samba'
p15
sS'110008'
p16
S'Chacha'
p17
sS'110009'
p18
S'Chacha'
p19
sS'111539'
p20
S'Jive'
p21
sS'111538'
p22
S'Jive'
p23
sS'111537'
p24
S'Jive'
p25
sS'111536'
p26
S'Jive'
p27
sS'111535'
p28
S'Jive'
p29
sS'111532'
p30
S'Rumba'
p31
sS'111531'
p32
S'Rumba'
p33
sS'111530'
p34
S'Rumba'
p35
sS'115810'
p36
S'Waltz'
p37
sS'115811'
p38
S'Tango'
p39
sS'115812'
p40
S'Tango'
p41
sS'115813'
p42
S'Tango'
p43
sS'115814'
p44
S'Tango'
p45
sS'115815'
p46
S'Tango'
p47
sS'115816'
p48
S'Tango'
p49
sS'115817'
p50
S'Viennesewaltz'
p51
sS'115818'
p52
S'Viennesewaltz'
p53
sS'115819'
p54
S'Viennesewaltz'
p55
sS'118829'
p56
S'Rumba'
p57
sS'116411'
p58
S'Tango'
p59
sS'116410'
p60
S'Tango'
p61
sS'116413'
p62
S'Viennesewaltz'
p63
sS'116412'
p64
S'Viennesewaltz'
p65
sS'116415'
p66
S'Foxtrot'
p67
sS'116414'
p68
S'Viennesewaltz'
p69
sS'116417'
p70
S'Foxtrot'
p71
sS'116416'
p72
S'Foxtrot'
p73
sS'116419'
p74
S'Foxtrot'
p75
sS'116418'
p76
S'Foxtrot'
p77
sS'110310'
p78
S'Quickstep'
p79
sS'110311'
p80
S'Quickstep'
p81
sS'117418'
p82
S'Chacha'
p83
sS'117419'
p84
S'Chacha'
p85
sS'110314'
p86
S'Quickstep'
p87
sS'110315'
p88
S'Quickstep'
p89
sS'110316'
p90
S'Quickstep'
p91
sS'110317'
p92
S'Quickstep'
p93
sS'117412'
p94
S'Chacha'
p95
sS'117413'
p96
S'Chacha'
p97
sS'117410'
p98
S'Samba'
p99
sS'117411'
p100
S'Chacha'
p101
sS'117416'
p102
S'Chacha'
p103
sS'117417'
p104
S'Chacha'
p105
sS'117414'
p106
S'Chacha'
p107
sS'117415'
p108
S'Chacha'
p109
sS'115227'
p110
S'Rumba'
p111
sS'118123'
p112
S'Quickstep'
p113
sS'118122'
p114
S'Quickstep'
p115
sS'118121'
p116
S'Quickstep'
p117
sS'118120'
p118
S'Quickstep'
p119
sS'100708'
p120
S'Samba'
p121
sS'100709'
p122
S'Rumba'
p123
sS'100702'
p124
S'Chacha'
p125
sS'100703'
p126
S'Chacha'
p127
sS'100701'
p128
S'Chacha'
p129
sS'100706'
p130
S'Samba'
p131
sS'100707'
p132
S'Samba'
p133
sS'100704'
p134
S'Chacha'
p135
sS'100705'
p136
S'Samba'
p137
sS'112716'
p138
S'Foxtrot'
p139
sS'109403'
p140
S'Waltz'
p141
sS'117526'
p142
S'Foxtrot'
p143
sS'117527'
p144
S'Foxtrot'
p145
sS'117524'
p146
S'Foxtrot'
p147
sS'117525'
p148
S'Foxtrot'
p149
sS'116309'
p150
S'Chacha'
p151
sS'116308'
p152
S'Chacha'
p153
sS'118024'
p154
S'Rumba'
p155
sS'117521'
p156
S'Foxtrot'
p157
sS'116305'
p158
S'Samba'
p159
sS'116304'
p160
S'Samba'
p161
sS'116307'
p162
S'Chacha'
p163
sS'118029'
p164
S'Rumba'
p165
sS'116301'
p166
S'Samba'
p167
sS'117528'
p168
S'Foxtrot'
p169
sS'117529'
p170
S'Quickstep'
p171
sS'105002'
p172
S'Waltz'
p173
sS'105003'
p174
S'Waltz'
p175
sS'105001'
p176
S'Waltz'
p177
sS'105006'
p178
S'Waltz'
p179
sS'105007'
p180
S'Waltz'
p181
sS'105004'
p182
S'Waltz'
p183
sS'105005'
p184
S'Waltz'
p185
sS'105008'
p186
S'Tango'
p187
sS'105009'
p188
S'Tango'
p189
sS'101018'
p190
S'Waltz'
p191
sS'101015'
p192
S'Quickstep'
p193
sS'101014'
p194
S'Foxtrot'
p195
sS'101017'
p196
S'Quickstep'
p197
sS'101016'
p198
S'Quickstep'
p199
sS'101011'
p200
S'Viennesewaltz'
p201
sS'101010'
p202
S'Viennesewaltz'
p203
sS'101013'
p204
S'Foxtrot'
p205
sS'101012'
p206
S'Foxtrot'
p207
sS'104715'
p208
S'Foxtrot'
p209
sS'104714'
p210
S'Foxtrot'
p211
sS'104717'
p212
S'Quickstep'
p213
sS'104716'
p214
S'Quickstep'
p215
sS'104711'
p216
S'Viennesewaltz'
p217
sS'104710'
p218
S'Tango'
p219
sS'104713'
p220
S'Foxtrot'
p221
sS'104712'
p222
S'Viennesewaltz'
p223
sS'104718'
p224
S'Quickstep'
p225
sS'118739'
p226
S'Viennesewaltz'
p227
sS'115113'
p228
S'Quickstep'
p229
sS'115223'
p230
S'Rumba'
p231
sS'109114'
p232
S'Viennesewaltz'
p233
sS'115440'
p234
S'Tango'
p235
sS'105902'
p236
S'Waltz'
p237
sS'109115'
p238
S'Viennesewaltz'
p239
sS'117320'
p240
S'Foxtrot'
p241
sS'116238'
p242
S'Quickstep'
p243
sS'107921'
p244
S'Waltz'
p245
sS'118338'
p246
S'Quickstep'
p247
sS'118339'
p248
S'Quickstep'
p249
sS'118336'
p250
S'Quickstep'
p251
sS'116230'
p252
S'Foxtrot'
p253
sS'116233'
p254
S'Quickstep'
p255
sS'116232'
p256
S'Quickstep'
p257
sS'118332'
p258
S'Foxtrot'
p259
sS'118333'
p260
S'Foxtrot'
p261
sS'118330'
p262
S'Foxtrot'
p263
sS'118331'
p264
S'Foxtrot'
p265
sS'109118'
p266
S'Viennesewaltz'
p267
sS'115222'
p268
S'Rumba'
p269
sS'118733'
p270
S'Tango'
p271
sS'105716'
p272
S'Quickstep'
p273
sS'105717'
p274
S'Quickstep'
p275
sS'105714'
p276
S'Foxtrot'
p277
sS'105715'
p278
S'Quickstep'
p279
sS'105712'
p280
S'Foxtrot'
p281
sS'105713'
p282
S'Foxtrot'
p283
sS'105710'
p284
S'Viennesewaltz'
p285
sS'105711'
p286
S'Foxtrot'
p287
sS'113319'
p288
S'Quickstep'
p289
sS'113318'
p290
S'Foxtrot'
p291
sS'118731'
p292
S'Tango'
p293
sS'113311'
p294
S'Viennesewaltz'
p295
sS'104210'
p296
S'Viennesewaltz'
p297
sS'113313'
p298
S'Viennesewaltz'
p299
sS'113312'
p300
S'Viennesewaltz'
p301
sS'113315'
p302
S'Foxtrot'
p303
sS'113314'
p304
S'Foxtrot'
p305
sS'113317'
p306
S'Foxtrot'
p307
sS'113316'
p308
S'Foxtrot'
p309
sS'115221'
p310
S'Rumba'
p311
sS'104212'
p312
S'Viennesewaltz'
p313
sS'118735'
p314
S'Tango'
p315
sS'108129'
p316
S'Waltz'
p317
sS'112312'
p318
S'Chacha'
p319
sS'112313'
p320
S'Rumba'
p321
sS'112310'
p322
S'Chacha'
p323
sS'112311'
p324
S'Chacha'
p325
sS'116121'
p326
S'Chacha'
p327
sS'116120'
p328
S'Chacha'
p329
sS'112314'
p330
S'Rumba'
p331
sS'112315'
p332
S'Rumba'
p333
sS'112318'
p334
S'Jive'
p335
sS'112319'
p336
S'Jive'
p337
sS'116129'
p338
S'Rumba'
p339
sS'116128'
p340
S'Rumba'
p341
sS'115220'
p342
S'Samba'
p343
sS'104704'
p344
S'Waltz'
p345
sS'112428'
p346
S'Rumba'
p347
sS'108710'
p348
S'Chacha'
p349
sS'113407'
p350
S'Chacha'
p351
sS'108712'
p352
S'Samba'
p353
sS'108715'
p354
S'Samba'
p355
sS'108714'
p356
S'Samba'
p357
sS'108717'
p358
S'Samba'
p359
sS'108716'
p360
S'Samba'
p361
sS'112420'
p362
S'Chacha'
p363
sS'112421'
p364
S'Chacha'
p365
sS'112422'
p366
S'Rumba'
p367
sS'112423'
p368
S'Rumba'
p369
sS'113409'
p370
S'Chacha'
p371
sS'113408'
p372
S'Chacha'
p373
sS'112426'
p374
S'Rumba'
p375
sS'112427'
p376
S'Rumba'
p377
sS'107714'
p378
S'Quickstep'
p379
sS'107715'
p380
S'Quickstep'
p381
sS'107716'
p382
S'Quickstep'
p383
sS'107717'
p384
S'Quickstep'
p385
sS'107710'
p386
S'Waltz'
p387
sS'107711'
p388
S'Quickstep'
p389
sS'107712'
p390
S'Quickstep'
p391
sS'107713'
p392
S'Quickstep'
p393
sS'113415'
p394
S'Rumba'
p395
sS'113321'
p396
S'Quickstep'
p397
sS'107718'
p398
S'Foxtrot'
p399
sS'107719'
p400
S'Foxtrot'
p401
sS'115839'
p402
S'Quickstep'
p403
sS'101911'
p404
S'Foxtrot'
p405
sS'101912'
p406
S'Foxtrot'
p407
sS'106620'
p408
S'Viennesewaltz'
p409
sS'118804'
p410
S'Samba'
p411
sS'118805'
p412
S'Samba'
p413
sS'118806'
p414
S'Samba'
p415
sS'118807'
p416
S'Samba'
p417
sS'118801'
p418
S'Samba'
p419
sS'118802'
p420
S'Samba'
p421
sS'118803'
p422
S'Samba'
p423
sS'106010'
p424
S'Rumba'
p425
sS'112222'
p426
S'Jive'
p427
sS'112223'
p428
S'Jive'
p429
sS'112220'
p430
S'Chacha'
p431
sS'112221'
p432
S'Rumba'
p433
sS'108829'
p434
S'Rumba'
p435
sS'108828'
p436
S'Rumba'
p437
sS'108827'
p438
S'Rumba'
p439
sS'108826'
p440
S'Rumba'
p441
sS'108825'
p442
S'Rumba'
p443
sS'108824'
p444
S'Rumba'
p445
sS'108823'
p446
S'Rumba'
p447
sS'108822'
p448
S'Rumba'
p449
sS'108821'
p450
S'Rumba'
p451
sS'108820'
p452
S'Chacha'
p453
sS'106722'
p454
S'Foxtrot'
p455
sS'106723'
p456
S'Foxtrot'
p457
sS'106720'
p458
S'Foxtrot'
p459
sS'106721'
p460
S'Foxtrot'
p461
sS'106726'
p462
S'Foxtrot'
p463
sS'106727'
p464
S'Quickstep'
p465
sS'106724'
p466
S'Foxtrot'
p467
sS'106725'
p468
S'Foxtrot'
p469
sS'108005'
p470
S'Quickstep'
p471
sS'108004'
p472
S'Quickstep'
p473
sS'106728'
p474
S'Quickstep'
p475
sS'106729'
p476
S'Quickstep'
p477
sS'108001'
p478
S'Quickstep'
p479
sS'108003'
p480
S'Quickstep'
p481
sS'108002'
p482
S'Quickstep'
p483
sS'111334'
p484
S'Tango'
p485
sS'115331'
p486
S'Quickstep'
p487
sS'115330'
p488
S'Quickstep'
p489
sS'115333'
p490
S'Quickstep'
p491
sS'115332'
p492
S'Quickstep'
p493
sS'115335'
p494
S'Quickstep'
p495
sS'115334'
p496
S'Quickstep'
p497
sS'115337'
p498
S'Viennesewaltz'
p499
sS'115336'
p500
S'Viennesewaltz'
p501
sS'115339'
p502
S'Viennesewaltz'
p503
sS'115338'
p504
S'Viennesewaltz'
p505
sS'114318'
p506
S'Rumba'
p507
sS'114319'
p508
S'Jive'
p509
sS'114314'
p510
S'Rumba'
p511
sS'115240'
p512
S'Jive'
p513
sS'114316'
p514
S'Rumba'
p515
sS'114317'
p516
S'Rumba'
p517
sS'114310'
p518
S'Chacha'
p519
sS'114311'
p520
S'Chacha'
p521
sS'114312'
p522
S'Chacha'
p523
sS'114313'
p524
S'Chacha'
p525
sS'108139'
p526
S'Tango'
p527
sS'108138'
p528
S'Tango'
p529
sS'108131'
p530
S'Waltz'
p531
sS'108130'
p532
S'Waltz'
p533
sS'108133'
p534
S'Viennesewaltz'
p535
sS'108132'
p536
S'Viennesewaltz'
p537
sS'108135'
p538
S'Tango'
p539
sS'110312'
p540
S'Quickstep'
p541
sS'108137'
p542
S'Tango'
p543
sS'108136'
p544
S'Tango'
p545
sS'111838'
p546
S'Tango'
p547
sS'110313'
p548
S'Quickstep'
p549
sS'111832'
p550
S'Viennesewaltz'
p551
sS'111833'
p552
S'Viennesewaltz'
p553
sS'111830'
p554
S'Waltz'
p555
sS'111831'
p556
S'Viennesewaltz'
p557
sS'111836'
p558
S'Tango'
p559
sS'111837'
p560
S'Tango'
p561
sS'111834'
p562
S'Tango'
p563
sS'111835'
p564
S'Tango'
p565
sS'111301'
p566
S'Foxtrot'
p567
sS'111302'
p568
S'Foxtrot'
p569
sS'111303'
p570
S'Foxtrot'
p571
sS'111304'
p572
S'Foxtrot'
p573
sS'111305'
p574
S'Foxtrot'
p575
sS'111306'
p576
S'Foxtrot'
p577
sS'111307'
p578
S'Foxtrot'
p579
sS'111308'
p580
S'Foxtrot'
p581
sS'111309'
p582
S'Foxtrot'
p583
sS'110135'
p584
S'Waltz'
p585
sS'110318'
p586
S'Quickstep'
p587
sS'105820'
p588
S'Quickstep'
p589
sS'110319'
p590
S'Quickstep'
p591
sS'108225'
p592
S'Waltz'
p593
sS'108224'
p594
S'Waltz'
p595
sS'108227'
p596
S'Waltz'
p597
sS'108226'
p598
S'Waltz'
p599
sS'108221'
p600
S'Waltz'
p601
sS'108220'
p602
S'Foxtrot'
p603
sS'108223'
p604
S'Waltz'
p605
sS'108222'
p606
S'Waltz'
p607
sS'108229'
p608
S'Waltz'
p609
sS'108228'
p610
S'Waltz'
p611
sS'111236'
p612
S'Jive'
p613
sS'111237'
p614
S'Jive'
p615
sS'111230'
p616
S'Rumba'
p617
sS'111231'
p618
S'Rumba'
p619
sS'111232'
p620
S'Rumba'
p621
sS'111233'
p622
S'Rumba'
p623
sS'110633'
p624
S'Quickstep'
p625
sS'110632'
p626
S'Quickstep'
p627
sS'110631'
p628
S'Foxtrot'
p629
sS'110630'
p630
S'Foxtrot'
p631
sS'111238'
p632
S'Jive'
p633
sS'111239'
p634
S'Jive'
p635
sS'110635'
p636
S'Quickstep'
p637
sS'110634'
p638
S'Quickstep'
p639
sS'110013'
p640
S'Rumba'
p641
sS'110012'
p642
S'Rumba'
p643
sS'110011'
p644
S'Chacha'
p645
sS'110010'
p646
S'Chacha'
p647
sS'110017'
p648
S'Jive'
p649
sS'110016'
p650
S'Jive'
p651
sS'110015'
p652
S'Rumba'
p653
sS'110014'
p654
S'Rumba'
p655
sS'110019'
p656
S'Jive'
p657
sS'110018'
p658
S'Jive'
p659
sS'104201'
p660
S'Waltz'
p661
sS'111542'
p662
S'Jive'
p663
sS'111540'
p664
S'Jive'
p665
sS'111541'
p666
S'Jive'
p667
sS'109709'
p668
S'Rumba'
p669
sS'115809'
p670
S'Waltz'
p671
sS'115808'
p672
S'Waltz'
p673
sS'115807'
p674
S'Waltz'
p675
sS'115806'
p676
S'Waltz'
p677
sS'115805'
p678
S'Waltz'
p679
sS'115804'
p680
S'Waltz'
p681
sS'115803'
p682
S'Waltz'
p683
sS'115802'
p684
S'Waltz'
p685
sS'115801'
p686
S'Waltz'
p687
sS'110127'
p688
S'Waltz'
p689
sS'110126'
p690
S'Waltz'
p691
sS'110125'
p692
S'Waltz'
p693
sS'110124'
p694
S'Waltz'
p695
sS'110123'
p696
S'Waltz'
p697
sS'110122'
p698
S'Waltz'
p699
sS'110121'
p700
S'Waltz'
p701
sS'110120'
p702
S'Waltz'
p703
sS'108124'
p704
S'Waltz'
p705
sS'110129'
p706
S'Waltz'
p707
sS'110128'
p708
S'Waltz'
p709
sS'108632'
p710
S'Jive'
p711
sS'113835'
p712
S'Jive'
p713
sS'116424'
p714
S'Quickstep'
p715
sS'116420'
p716
S'Quickstep'
p717
sS'116421'
p718
S'Quickstep'
p719
sS'116422'
p720
S'Quickstep'
p721
sS'116423'
p722
S'Quickstep'
p723
sS'117409'
p724
S'Samba'
p725
sS'117408'
p726
S'Samba'
p727
sS'113837'
p728
S'Jive'
p729
sS'107325'
p730
S'Tango'
p731
sS'110309'
p732
S'Quickstep'
p733
sS'110308'
p734
S'Quickstep'
p735
sS'110307'
p736
S'Quickstep'
p737
sS'110306'
p738
S'Quickstep'
p739
sS'110305'
p740
S'Quickstep'
p741
sS'110304'
p742
S'Quickstep'
p743
sS'110303'
p744
S'Quickstep'
p745
sS'110302'
p746
S'Quickstep'
p747
sS'110301'
p748
S'Quickstep'
p749
sS'117406'
p750
S'Samba'
p751
sS'114440'
p752
S'Quickstep'
p753
sS'109702'
p754
S'Samba'
p755
sS'107819'
p756
S'Quickstep'
p757
sS'107350'
p758
S'Quickstep'
p759
sS'108705'
p760
S'Chacha'
p761
sS'112833'
p762
S'Viennesewaltz'
p763
sS'112832'
p764
S'Viennesewaltz'
p765
sS'100711'
p766
S'Rumba'
p767
sS'100710'
p768
S'Rumba'
p769
sS'100712'
p770
S'Rumba'
p771
sS'100715'
p772
S'Jive'
p773
sS'100714'
p774
S'Jive'
p775
sS'100716'
p776
S'Jive'
p777
sS'112939'
p778
S'Samba'
p779
sS'112521'
p780
S'Samba'
p781
sS'117515'
p782
S'Tango'
p783
sS'113839'
p784
S'Jive'
p785
sS'118031'
p786
S'Jive'
p787
sS'117534'
p788
S'Quickstep'
p789
sS'118033'
p790
S'Jive'
p791
sS'118032'
p792
S'Jive'
p793
sS'118035'
p794
S'Jive'
p795
sS'118034'
p796
S'Jive'
p797
sS'118037'
p798
S'Jive'
p799
sS'118036'
p800
S'Jive'
p801
sS'118039'
p802
S'Jive'
p803
sS'118038'
p804
S'Jive'
p805
sS'108734'
p806
S'Jive'
p807
sS'117539'
p808
S'Viennesewaltz'
p809
sS'117538'
p810
S'Viennesewaltz'
p811
sS'105011'
p812
S'Viennesewaltz'
p813
sS'105010'
p814
S'Viennesewaltz'
p815
sS'105013'
p816
S'Foxtrot'
p817
sS'105012'
p818
S'Foxtrot'
p819
sS'105015'
p820
S'Foxtrot'
p821
sS'105014'
p822
S'Foxtrot'
p823
sS'105017'
p824
S'Quickstep'
p825
sS'105016'
p826
S'Quickstep'
p827
sS'105019'
p828
S'Quickstep'
p829
sS'105018'
p830
S'Quickstep'
p831
sS'115736'
p832
S'Tango'
p833
sS'104012'
p834
S'Chacha'
p835
sS'104010'
p836
S'Chacha'
p837
sS'104011'
p838
S'Chacha'
p839
sS'104016'
p840
S'Jive'
p841
sS'104017'
p842
S'Jive'
p843
sS'104015'
p844
S'Jive'
p845
sS'113540'
p846
S'Quickstep'
p847
sS'113541'
p848
S'Quickstep'
p849
sS'116204'
p850
S'Waltz'
p851
sS'116205'
p852
S'Waltz'
p853
sS'116206'
p854
S'Waltz'
p855
sS'116207'
p856
S'Waltz'
p857
sS'116201'
p858
S'Waltz'
p859
sS'116202'
p860
S'Waltz'
p861
sS'116203'
p862
S'Waltz'
p863
sS'116208'
p864
S'Waltz'
p865
sS'116209'
p866
S'Waltz'
p867
sS'118329'
p868
S'Foxtrot'
p869
sS'118328'
p870
S'Foxtrot'
p871
sS'117339'
p872
S'Viennesewaltz'
p873
sS'117338'
p874
S'Tango'
p875
sS'118325'
p876
S'Foxtrot'
p877
sS'118324'
p878
S'Foxtrot'
p879
sS'118327'
p880
S'Foxtrot'
p881
sS'118326'
p882
S'Foxtrot'
p883
sS'113140'
p884
S'Quickstep'
p885
sS'113141'
p886
S'Quickstep'
p887
sS'118323'
p888
S'Foxtrot'
p889
sS'118322'
p890
S'Viennesewaltz'
p891
sS'105709'
p892
S'Viennesewaltz'
p893
sS'105708'
p894
S'Viennesewaltz'
p895
sS'105705'
p896
S'Tango'
p897
sS'105704'
p898
S'Waltz'
p899
sS'105707'
p900
S'Tango'
p901
sS'105706'
p902
S'Tango'
p903
sS'105701'
p904
S'Waltz'
p905
sS'105703'
p906
S'Waltz'
p907
sS'105702'
p908
S'Waltz'
p909
sS'111209'
p910
S'Samba'
p911
sS'111240'
p912
S'Jive'
p913
sS'112301'
p914
S'Samba'
p915
sS'118022'
p916
S'Rumba'
p917
sS'116112'
p918
S'Chacha'
p919
sS'116113'
p920
S'Chacha'
p921
sS'116114'
p922
S'Chacha'
p923
sS'116115'
p924
S'Chacha'
p925
sS'112307'
p926
S'Chacha'
p927
sS'118023'
p928
S'Rumba'
p929
sS'112309'
p930
S'Chacha'
p931
sS'116119'
p932
S'Chacha'
p933
sS'118020'
p934
S'Samba'
p935
sS'118021'
p936
S'Rumba'
p937
sS'117522'
p938
S'Foxtrot'
p939
sS'117523'
p940
S'Foxtrot'
p941
sS'110509'
p942
S'Tango'
p943
sS'108728'
p944
S'Rumba'
p945
sS'108729'
p946
S'Rumba'
p947
sS'112940'
p948
S'Rumba'
p949
sS'108724'
p950
S'Rumba'
p951
sS'112120'
p952
S'Jive'
p953
sS'108726'
p954
S'Rumba'
p955
sS'108727'
p956
S'Rumba'
p957
sS'108720'
p958
S'Samba'
p959
sS'108721'
p960
S'Rumba'
p961
sS'108722'
p962
S'Rumba'
p963
sS'108723'
p964
S'Rumba'
p965
sS'107703'
p966
S'Waltz'
p967
sS'107702'
p968
S'Waltz'
p969
sS'107701'
p970
S'Waltz'
p971
sS'107707'
p972
S'Waltz'
p973
sS'107706'
p974
S'Waltz'
p975
sS'107705'
p976
S'Waltz'
p977
sS'107704'
p978
S'Waltz'
p979
sS'107709'
p980
S'Waltz'
p981
sS'107708'
p982
S'Waltz'
p983
sS'118028'
p984
S'Rumba'
p985
sS'116306'
p986
S'Samba'
p987
sS'110119'
p988
S'Waltz'
p989
sS'118813'
p990
S'Chacha'
p991
sS'118812'
p992
S'Chacha'
p993
sS'118811'
p994
S'Samba'
p995
sS'118810'
p996
S'Samba'
p997
sS'118817'
p998
S'Chacha'
p999
sS'116303'
p1000
S'Samba'
p1001
sS'118815'
p1002
S'Chacha'
p1003
sS'118814'
p1004
S'Chacha'
p1005
sS'118819'
p1006
S'Chacha'
p1007
sS'118818'
p1008
S'Chacha'
p1009
sS'115018'
p1010
S'Tango'
p1011
sS'115019'
p1012
S'Tango'
p1013
sS'108808'
p1014
S'Samba'
p1015
sS'115010'
p1016
S'Tango'
p1017
sS'115011'
p1018
S'Tango'
p1019
sS'115012'
p1020
S'Tango'
p1021
sS'115013'
p1022
S'Tango'
p1023
sS'115014'
p1024
S'Tango'
p1025
sS'115015'
p1026
S'Tango'
p1027
sS'115016'
p1028
S'Tango'
p1029
sS'115017'
p1030
S'Tango'
p1031
sS'106731'
p1032
S'Quickstep'
p1033
sS'106730'
p1034
S'Quickstep'
p1035
sS'106733'
p1036
S'Quickstep'
p1037
sS'106732'
p1038
S'Quickstep'
p1039
sS'106735'
p1040
S'Viennesewaltz'
p1041
sS'106734'
p1042
S'Viennesewaltz'
p1043
sS'106737'
p1044
S'Viennesewaltz'
p1045
sS'106736'
p1046
S'Viennesewaltz'
p1047
sS'106739'
p1048
S'Viennesewaltz'
p1049
sS'106738'
p1050
S'Viennesewaltz'
p1051
sS'108032'
p1052
S'Waltz'
p1053
sS'108033'
p1054
S'Waltz'
p1055
sS'108034'
p1056
S'Tango'
p1057
sS'108035'
p1058
S'Tango'
p1059
sS'108036'
p1060
S'Tango'
p1061
sS'108037'
p1062
S'Tango'
p1063
sS'112437'
p1064
S'Jive'
p1065
sS'112436'
p1066
S'Jive'
p1067
sS'112435'
p1068
S'Jive'
p1069
sS'112434'
p1070
S'Jive'
p1071
sS'112433'
p1072
S'Rumba'
p1073
sS'112432'
p1074
S'Rumba'
p1075
sS'112431'
p1076
S'Rumba'
p1077
sS'112430'
p1078
S'Rumba'
p1079
sS'115304'
p1080
S'Waltz'
p1081
sS'115305'
p1082
S'Waltz'
p1083
sS'115306'
p1084
S'Waltz'
p1085
sS'115307'
p1086
S'Waltz'
p1087
sS'115301'
p1088
S'Waltz'
p1089
sS'115302'
p1090
S'Waltz'
p1091
sS'112438'
p1092
S'Jive'
p1093
sS'114309'
p1094
S'Chacha'
p1095
sS'114308'
p1096
S'Chacha'
p1097
sS'114303'
p1098
S'Samba'
p1099
sS'114302'
p1100
S'Samba'
p1101
sS'114301'
p1102
S'Samba'
p1103
sS'114307'
p1104
S'Samba'
p1105
sS'114306'
p1106
S'Samba'
p1107
sS'114305'
p1108
S'Samba'
p1109
sS'114304'
p1110
S'Samba'
p1111
sS'108104'
p1112
S'Foxtrot'
p1113
sS'108105'
p1114
S'Foxtrot'
p1115
sS'108106'
p1116
S'Foxtrot'
p1117
sS'108107'
p1118
S'Foxtrot'
p1119
sS'108101'
p1120
S'Foxtrot'
p1121
sS'108102'
p1122
S'Foxtrot'
p1123
sS'108103'
p1124
S'Foxtrot'
p1125
sS'108108'
p1126
S'Foxtrot'
p1127
sS'108109'
p1128
S'Foxtrot'
p1129
sS'110808'
p1130
S'Chacha'
p1131
sS'110809'
p1132
S'Chacha'
p1133
sS'108607'
p1134
S'Chacha'
p1135
sS'110804'
p1136
S'Chacha'
p1137
sS'110805'
p1138
S'Chacha'
p1139
sS'110806'
p1140
S'Chacha'
p1141
sS'110807'
p1142
S'Chacha'
p1143
sS'110801'
p1144
S'Chacha'
p1145
sS'110802'
p1146
S'Chacha'
p1147
sS'110803'
p1148
S'Chacha'
p1149
sS'111829'
p1150
S'Waltz'
p1151
sS'111828'
p1152
S'Waltz'
p1153
sS'112021'
p1154
S'Quickstep'
p1155
sS'111821'
p1156
S'Waltz'
p1157
sS'111820'
p1158
S'Quickstep'
p1159
sS'111823'
p1160
S'Waltz'
p1161
sS'111822'
p1162
S'Waltz'
p1163
sS'111825'
p1164
S'Waltz'
p1165
sS'111824'
p1166
S'Waltz'
p1167
sS'111827'
p1168
S'Waltz'
p1169
sS'111826'
p1170
S'Waltz'
p1171
sS'111319'
p1172
S'Quickstep'
p1173
sS'111318'
p1174
S'Quickstep'
p1175
sS'111317'
p1176
S'Quickstep'
p1177
sS'111316'
p1178
S'Quickstep'
p1179
sS'111315'
p1180
S'Quickstep'
p1181
sS'111314'
p1182
S'Quickstep'
p1183
sS'111313'
p1184
S'Quickstep'
p1185
sS'111312'
p1186
S'Quickstep'
p1187
sS'111311'
p1188
S'Quickstep'
p1189
sS'111310'
p1190
S'Foxtrot'
p1191
sS'113216'
p1192
S'Rumba'
p1193
sS'107326'
p1194
S'Foxtrot'
p1195
sS'108210'
p1196
S'Quickstep'
p1197
sS'108211'
p1198
S'Foxtrot'
p1199
sS'108212'
p1200
S'Foxtrot'
p1201
sS'108213'
p1202
S'Foxtrot'
p1203
sS'108214'
p1204
S'Foxtrot'
p1205
sS'108215'
p1206
S'Foxtrot'
p1207
sS'108216'
p1208
S'Foxtrot'
p1209
sS'108217'
p1210
S'Foxtrot'
p1211
sS'108218'
p1212
S'Foxtrot'
p1213
sS'108219'
p1214
S'Foxtrot'
p1215
sS'111322'
p1216
S'Waltz'
p1217
sS'111223'
p1218
S'Rumba'
p1219
sS'111222'
p1220
S'Chacha'
p1221
sS'111221'
p1222
S'Chacha'
p1223
sS'111220'
p1224
S'Chacha'
p1225
sS'111227'
p1226
S'Rumba'
p1227
sS'111226'
p1228
S'Rumba'
p1229
sS'111225'
p1230
S'Rumba'
p1231
sS'111224'
p1232
S'Rumba'
p1233
sS'111229'
p1234
S'Rumba'
p1235
sS'111228'
p1236
S'Rumba'
p1237
sS'115210'
p1238
S'Chacha'
p1239
sS'110603'
p1240
S'Waltz'
p1241
sS'110601'
p1242
S'Waltz'
p1243
sS'106702'
p1244
S'Waltz'
p1245
sS'117434'
p1246
S'Jive'
p1247
sS'117435'
p1248
S'Jive'
p1249
sS'117436'
p1250
S'Jive'
p1251
sS'117437'
p1252
S'Jive'
p1253
sS'117430'
p1254
S'Rumba'
p1255
sS'117431'
p1256
S'Jive'
p1257
sS'117432'
p1258
S'Jive'
p1259
sS'117433'
p1260
S'Jive'
p1261
sS'100816'
p1262
S'Jive'
p1263
sS'100817'
p1264
S'Jive'
p1265
sS'100814'
p1266
S'Jive'
p1267
sS'100815'
p1268
S'Jive'
p1269
sS'117438'
p1270
S'Jive'
p1271
sS'100810'
p1272
S'Rumba'
p1273
sS'100811'
p1274
S'Rumba'
p1275
sS'115906'
p1276
S'Samba'
p1277
sS'115907'
p1278
S'Samba'
p1279
sS'115904'
p1280
S'Samba'
p1281
sS'115905'
p1282
S'Samba'
p1283
sS'115902'
p1284
S'Samba'
p1285
sS'115903'
p1286
S'Samba'
p1287
sS'115901'
p1288
S'Samba'
p1289
sS'115129'
p1290
S'Waltz'
p1291
sS'115908'
p1292
S'Samba'
p1293
sS'115909'
p1294
S'Samba'
p1295
sS'110435'
p1296
S'Tango'
p1297
sS'116323'
p1298
S'Jive'
p1299
sS'116322'
p1300
S'Jive'
p1301
sS'116321'
p1302
S'Jive'
p1303
sS'116320'
p1304
S'Jive'
p1305
sS'118410'
p1306
S'Samba'
p1307
sS'110206'
p1308
S'Foxtrot'
p1309
sS'110207'
p1310
S'Foxtrot'
p1311
sS'110204'
p1312
S'Foxtrot'
p1313
sS'110205'
p1314
S'Foxtrot'
p1315
sS'110202'
p1316
S'Foxtrot'
p1317
sS'110203'
p1318
S'Foxtrot'
p1319
sS'110201'
p1320
S'Foxtrot'
p1321
sS'118004'
p1322
S'Chacha'
p1323
sS'118005'
p1324
S'Chacha'
p1325
sS'118006'
p1326
S'Chacha'
p1327
sS'118007'
p1328
S'Chacha'
p1329
sS'118001'
p1330
S'Chacha'
p1331
sS'110208'
p1332
S'Foxtrot'
p1333
sS'110209'
p1334
S'Foxtrot'
p1335
sS'105020'
p1336
S'Quickstep'
p1337
sS'112116'
p1338
S'Rumba'
p1339
sS'104009'
p1340
S'Chacha'
p1341
sS'104008'
p1342
S'Rumba'
p1343
sS'109103'
p1344
S'Viennesewaltz'
p1345
sS'112441'
p1346
S'Jive'
p1347
sS'116502'
p1348
S'Tango'
p1349
sS'104001'
p1350
S'Samba'
p1351
sS'104003'
p1352
S'Samba'
p1353
sS'104002'
p1354
S'Samba'
p1355
sS'104005'
p1356
S'Rumba'
p1357
sS'104004'
p1358
S'Samba'
p1359
sS'104007'
p1360
S'Rumba'
p1361
sS'104006'
p1362
S'Rumba'
p1363
sS'116239'
p1364
S'Quickstep'
p1365
sS'110439'
p1366
S'Viennesewaltz'
p1367
sS'110438'
p1368
S'Viennesewaltz'
p1369
sS'116213'
p1370
S'Tango'
p1371
sS'116212'
p1372
S'Tango'
p1373
sS'116211'
p1374
S'Tango'
p1375
sS'116210'
p1376
S'Waltz'
p1377
sS'116217'
p1378
S'Viennesewaltz'
p1379
sS'116216'
p1380
S'Tango'
p1381
sS'116215'
p1382
S'Tango'
p1383
sS'116214'
p1384
S'Tango'
p1385
sS'116219'
p1386
S'Viennesewaltz'
p1387
sS'116218'
p1388
S'Viennesewaltz'
p1389
sS'118318'
p1390
S'Viennesewaltz'
p1391
sS'118319'
p1392
S'Viennesewaltz'
p1393
sS'111514'
p1394
S'Chacha'
p1395
sS'118311'
p1396
S'Tango'
p1397
sS'118312'
p1398
S'Tango'
p1399
sS'118313'
p1400
S'Tango'
p1401
sS'118314'
p1402
S'Tango'
p1403
sS'118315'
p1404
S'Tango'
p1405
sS'118316'
p1406
S'Tango'
p1407
sS'118317'
p1408
S'Tango'
p1409
sS'116231'
p1410
S'Foxtrot'
p1411
sS'118337'
p1412
S'Quickstep'
p1413
sS'118334'
p1414
S'Quickstep'
p1415
sS'105510'
p1416
S'Viennesewaltz'
p1417
sS'105511'
p1418
S'Viennesewaltz'
p1419
sS'105512'
p1420
S'Foxtrot'
p1421
sS'105513'
p1422
S'Foxtrot'
p1423
sS'105514'
p1424
S'Foxtrot'
p1425
sS'105515'
p1426
S'Foxtrot'
p1427
sS'105516'
p1428
S'Quickstep'
p1429
sS'105517'
p1430
S'Quickstep'
p1431
sS'105518'
p1432
S'Quickstep'
p1433
sS'116235'
p1434
S'Quickstep'
p1435
sS'114018'
p1436
S'Foxtrot'
p1437
sS'116234'
p1438
S'Quickstep'
p1439
sS'116237'
p1440
S'Quickstep'
p1441
sS'111328'
p1442
S'Waltz'
p1443
sS'116236'
p1444
S'Quickstep'
p1445
sS'114015'
p1446
S'Foxtrot'
p1447
sS'116109'
p1448
S'Samba'
p1449
sS'116108'
p1450
S'Samba'
p1451
sS'116107'
p1452
S'Samba'
p1453
sS'116106'
p1454
S'Samba'
p1455
sS'116105'
p1456
S'Samba'
p1457
sS'116104'
p1458
S'Samba'
p1459
sS'116103'
p1460
S'Samba'
p1461
sS'116102'
p1462
S'Samba'
p1463
sS'116101'
p1464
S'Samba'
p1465
sS'114012'
p1466
S'Viennesewaltz'
p1467
sS'112932'
p1468
S'Jive'
p1469
sS'112933'
p1470
S'Jive'
p1471
sS'112930'
p1472
S'Jive'
p1473
sS'112931'
p1474
S'Jive'
p1475
sS'112706'
p1476
S'Waltz'
p1477
sS'112937'
p1478
S'Chacha'
p1479
sS'112934'
p1480
S'Jive'
p1481
sS'100615'
p1482
S'Quickstep'
p1483
sS'108733'
p1484
S'Jive'
p1485
sS'108732'
p1486
S'Jive'
p1487
sS'112938'
p1488
S'Chacha'
p1489
sS'108730'
p1490
S'Rumba'
p1491
sS'107925'
p1492
S'Waltz'
p1493
sS'113421'
p1494
S'Jive'
p1495
sS'113420'
p1496
S'Jive'
p1497
sS'100610'
p1498
S'Viennesewaltz'
p1499
sS'115833'
p1500
S'Quickstep'
p1501
sS'108731'
p1502
S'Jive'
p1503
sS'115830'
p1504
S'Foxtrot'
p1505
sS'109703'
p1506
S'Samba'
p1507
sS'115831'
p1508
S'Foxtrot'
p1509
sS'112208'
p1510
S'Samba'
p1511
sS'112209'
p1512
S'Samba'
p1513
sS'101212'
p1514
S'Rumba'
p1515
sS'112201'
p1516
S'Rumba'
p1517
sS'112202'
p1518
S'Rumba'
p1519
sS'112203'
p1520
S'Rumba'
p1521
sS'112204'
p1522
S'Rumba'
p1523
sS'112205'
p1524
S'Samba'
p1525
sS'112206'
p1526
S'Samba'
p1527
sS'112207'
p1528
S'Samba'
p1529
sS'108027'
p1530
S'Waltz'
p1531
sS'108026'
p1532
S'Waltz'
p1533
sS'108025'
p1534
S'Waltz'
p1535
sS'108024'
p1536
S'Waltz'
p1537
sS'108023'
p1538
S'Waltz'
p1539
sS'108022'
p1540
S'Waltz'
p1541
sS'108021'
p1542
S'Foxtrot'
p1543
sS'108020'
p1544
S'Foxtrot'
p1545
sS'108029'
p1546
S'Waltz'
p1547
sS'108028'
p1548
S'Waltz'
p1549
sS'118827'
p1550
S'Rumba'
p1551
sS'113119'
p1552
S'Viennesewaltz'
p1553
sS'106708'
p1554
S'Waltz'
p1555
sS'106709'
p1556
S'Waltz'
p1557
sS'106704'
p1558
S'Waltz'
p1559
sS'106705'
p1560
S'Waltz'
p1561
sS'106706'
p1562
S'Waltz'
p1563
sS'106707'
p1564
S'Waltz'
p1565
sS'106701'
p1566
S'Waltz'
p1567
sS'112840'
p1568
S'Tango'
p1569
sS'106703'
p1570
S'Waltz'
p1571
sS'107608'
p1572
S'Samba'
p1573
sS'107609'
p1574
S'Samba'
p1575
sS'107602'
p1576
S'Samba'
p1577
sS'107603'
p1578
S'Samba'
p1579
sS'107601'
p1580
S'Samba'
p1581
sS'107606'
p1582
S'Samba'
p1583
sS'107607'
p1584
S'Samba'
p1585
sS'107604'
p1586
S'Samba'
p1587
sS'107605'
p1588
S'Samba'
p1589
sS'112114'
p1590
S'Rumba'
p1591
sS'112115'
p1592
S'Rumba'
p1593
sS'112440'
p1594
S'Jive'
p1595
sS'112117'
p1596
S'Jive'
p1597
sS'112110'
p1598
S'Chacha'
p1599
sS'112111'
p1600
S'Chacha'
p1601
sS'112112'
p1602
S'Rumba'
p1603
sS'112113'
p1604
S'Rumba'
p1605
sS'115313'
p1606
S'Tango'
p1607
sS'115312'
p1608
S'Waltz'
p1609
sS'115311'
p1610
S'Waltz'
p1611
sS'115310'
p1612
S'Waltz'
p1613
sS'115317'
p1614
S'Tango'
p1615
sS'115640'
p1616
S'Jive'
p1617
sS'115315'
p1618
S'Tango'
p1619
sS'115314'
p1620
S'Tango'
p1621
sS'111814'
p1622
S'Quickstep'
p1623
sS'111815'
p1624
S'Quickstep'
p1625
sS'111816'
p1626
S'Quickstep'
p1627
sS'108113'
p1628
S'Quickstep'
p1629
sS'108112'
p1630
S'Quickstep'
p1631
sS'108111'
p1632
S'Foxtrot'
p1633
sS'108110'
p1634
S'Foxtrot'
p1635
sS'108117'
p1636
S'Quickstep'
p1637
sS'108116'
p1638
S'Quickstep'
p1639
sS'108115'
p1640
S'Quickstep'
p1641
sS'108114'
p1642
S'Quickstep'
p1643
sS'108735'
p1644
S'Jive'
p1645
sS'107112'
p1646
S'Viennesewaltz'
p1647
sS'108119'
p1648
S'Quickstep'
p1649
sS'108118'
p1650
S'Quickstep'
p1651
sS'112119'
p1652
S'Jive'
p1653
sS'111811'
p1654
S'Quickstep'
p1655
sS'107116'
p1656
S'Quickstep'
p1657
sS'107117'
p1658
S'Quickstep'
p1659
sS'107114'
p1660
S'Foxtrot'
p1661
sS'107115'
p1662
S'Foxtrot'
p1663
sS'111810'
p1664
S'Foxtrot'
p1665
sS'107113'
p1666
S'Foxtrot'
p1667
sS'111812'
p1668
S'Quickstep'
p1669
sS'107111'
p1670
S'Viennesewaltz'
p1671
sS'110813'
p1672
S'Rumba'
p1673
sS'110812'
p1674
S'Rumba'
p1675
sS'110811'
p1676
S'Chacha'
p1677
sS'111813'
p1678
S'Quickstep'
p1679
sS'111818'
p1680
S'Quickstep'
p1681
sS'111819'
p1682
S'Quickstep'
p1683
sS'110815'
p1684
S'Rumba'
p1685
sS'110814'
p1686
S'Rumba'
p1687
sS'115007'
p1688
S'Tango'
p1689
sS'115006'
p1690
S'Tango'
p1691
sS'115005'
p1692
S'Tango'
p1693
sS'115004'
p1694
S'Tango'
p1695
sS'115003'
p1696
S'Tango'
p1697
sS'115002'
p1698
S'Tango'
p1699
sS'115001'
p1700
S'Tango'
p1701
sS'115009'
p1702
S'Tango'
p1703
sS'115008'
p1704
S'Tango'
p1705
sS'110810'
p1706
S'Chacha'
p1707
sS'114840'
p1708
S'Jive'
p1709
sS'110816'
p1710
S'Rumba'
p1711
sS'107118'
p1712
S'Waltz'
p1713
sS'116504'
p1714
S'Tango'
p1715
sS'108209'
p1716
S'Quickstep'
p1717
sS'108208'
p1718
S'Quickstep'
p1719
sS'108207'
p1720
S'Quickstep'
p1721
sS'108206'
p1722
S'Quickstep'
p1723
sS'108205'
p1724
S'Quickstep'
p1725
sS'108204'
p1726
S'Quickstep'
p1727
sS'108203'
p1728
S'Quickstep'
p1729
sS'108202'
p1730
S'Quickstep'
p1731
sS'108201'
p1732
S'Quickstep'
p1733
sS'107337'
p1734
S'Viennesewaltz'
p1735
sS'115216'
p1736
S'Samba'
p1737
sS'116125'
p1738
S'Rumba'
p1739
sS'116124'
p1740
S'Rumba'
p1741
sS'116127'
p1742
S'Rumba'
p1743
sS'102620'
p1744
S'Quickstep'
p1745
sS'114518'
p1746
S'Jive'
p1747
sS'114519'
p1748
S'Jive'
p1749
sS'114516'
p1750
S'Rumba'
p1751
sS'114517'
p1752
S'Jive'
p1753
sS'114514'
p1754
S'Rumba'
p1755
sS'114515'
p1756
S'Rumba'
p1757
sS'114512'
p1758
S'Chacha'
p1759
sS'114513'
p1760
S'Rumba'
p1761
sS'114510'
p1762
S'Chacha'
p1763
sS'114511'
p1764
S'Chacha'
p1765
sS'116123'
p1766
S'Rumba'
p1767
sS'116122'
p1768
S'Rumba'
p1769
sS'103608'
p1770
S'Rumba'
p1771
sS'103609'
p1772
S'Rumba'
p1773
sS'103606'
p1774
S'Samba'
p1775
sS'103607'
p1776
S'Samba'
p1777
sS'103604'
p1778
S'Chacha'
p1779
sS'103605'
p1780
S'Samba'
p1781
sS'103602'
p1782
S'Chacha'
p1783
sS'103603'
p1784
S'Chacha'
p1785
sS'103601'
p1786
S'Chacha'
p1787
sS'117423'
p1788
S'Rumba'
p1789
sS'117422'
p1790
S'Rumba'
p1791
sS'117421'
p1792
S'Rumba'
p1793
sS'117420'
p1794
S'Chacha'
p1795
sS'117427'
p1796
S'Rumba'
p1797
sS'100808'
p1798
S'Chacha'
p1799
sS'117425'
p1800
S'Rumba'
p1801
sS'117424'
p1802
S'Rumba'
p1803
sS'100805'
p1804
S'Chacha'
p1805
sS'100804'
p1806
S'Samba'
p1807
sS'100807'
p1808
S'Chacha'
p1809
sS'100806'
p1810
S'Chacha'
p1811
sS'100801'
p1812
S'Samba'
p1813
sS'118415'
p1814
S'Chacha'
p1815
sS'100803'
p1816
S'Samba'
p1817
sS'100802'
p1818
S'Samba'
p1819
sS'118414'
p1820
S'Chacha'
p1821
sS'108601'
p1822
S'Chacha'
p1823
sS'115212'
p1824
S'Samba'
p1825
sS'111716'
p1826
S'Jive'
p1827
sS'115915'
p1828
S'Chacha'
p1829
sS'115914'
p1830
S'Chacha'
p1831
sS'115917'
p1832
S'Chacha'
p1833
sS'115916'
p1834
S'Chacha'
p1835
sS'115911'
p1836
S'Samba'
p1837
sS'115910'
p1838
S'Samba'
p1839
sS'115913'
p1840
S'Chacha'
p1841
sS'115912'
p1842
S'Samba'
p1843
sS'114422'
p1844
S'Foxtrot'
p1845
sS'114423'
p1846
S'Foxtrot'
p1847
sS'114420'
p1848
S'Tango'
p1849
sS'114421'
p1850
S'Foxtrot'
p1851
sS'115919'
p1852
S'Chacha'
p1853
sS'115918'
p1854
S'Chacha'
p1855
sS'114424'
p1856
S'Foxtrot'
p1857
sS'114425'
p1858
S'Foxtrot'
p1859
sS'118107'
p1860
S'Tango'
p1861
sS'117532'
p1862
S'Quickstep'
p1863
sS'110215'
p1864
S'Foxtrot'
p1865
sS'110214'
p1866
S'Foxtrot'
p1867
sS'110217'
p1868
S'Foxtrot'
p1869
sS'110216'
p1870
S'Foxtrot'
p1871
sS'110211'
p1872
S'Foxtrot'
p1873
sS'110210'
p1874
S'Foxtrot'
p1875
sS'110213'
p1876
S'Foxtrot'
p1877
sS'110212'
p1878
S'Foxtrot'
p1879
sS'118013'
p1880
S'Samba'
p1881
sS'118012'
p1882
S'Samba'
p1883
sS'118011'
p1884
S'Samba'
p1885
sS'118010'
p1886
S'Chacha'
p1887
sS'110219'
p1888
S'Foxtrot'
p1889
sS'110218'
p1890
S'Foxtrot'
p1891
sS'118015'
p1892
S'Samba'
p1893
sS'118014'
p1894
S'Samba'
p1895
sS'114736'
p1896
S'Quickstep'
p1897
sS'114737'
p1898
S'Viennesewaltz'
p1899
sS'114734'
p1900
S'Quickstep'
p1901
sS'114735'
p1902
S'Quickstep'
p1903
sS'114732'
p1904
S'Quickstep'
p1905
sS'114733'
p1906
S'Quickstep'
p1907
sS'114730'
p1908
S'Quickstep'
p1909
sS'114731'
p1910
S'Quickstep'
p1911
sS'114738'
p1912
S'Viennesewaltz'
p1913
sS'114739'
p1914
S'Viennesewaltz'
p1915
sS'108711'
p1916
S'Samba'
p1917
sS'109112'
p1918
S'Viennesewaltz'
p1919
sS'112429'
p1920
S'Rumba'
p1921
sS'108713'
p1922
S'Samba'
p1923
sS'105812'
p1924
S'Viennesewaltz'
p1925
sS'113406'
p1926
S'Samba'
p1927
sS'113401'
p1928
S'Samba'
p1929
sS'117830'
p1930
S'Rumba'
p1931
sS'113403'
p1932
S'Samba'
p1933
sS'113402'
p1934
S'Samba'
p1935
sS'108719'
p1936
S'Samba'
p1937
sS'108718'
p1938
S'Samba'
p1939
sS'113638'
p1940
S'Jive'
p1941
sS'113639'
p1942
S'Jive'
p1943
sS'113636'
p1944
S'Jive'
p1945
sS'112424'
p1946
S'Rumba'
p1947
sS'105505'
p1948
S'Tango'
p1949
sS'105504'
p1950
S'Waltz'
p1951
sS'113632'
p1952
S'Rumba'
p1953
sS'113633'
p1954
S'Rumba'
p1955
sS'113630'
p1956
S'Rumba'
p1957
sS'112425'
p1958
S'Rumba'
p1959
sS'112322'
p1960
S'Jive'
p1961
sS'112321'
p1962
S'Jive'
p1963
sS'112320'
p1964
S'Jive'
p1965
sS'113522'
p1966
S'Foxtrot'
p1967
sS'113523'
p1968
S'Foxtrot'
p1969
sS'113520'
p1970
S'Viennesewaltz'
p1971
sS'113521'
p1972
S'Viennesewaltz'
p1973
sS'113526'
p1974
S'Foxtrot'
p1975
sS'113527'
p1976
S'Foxtrot'
p1977
sS'113524'
p1978
S'Foxtrot'
p1979
sS'113525'
p1980
S'Foxtrot'
p1981
sS'113528'
p1982
S'Foxtrot'
p1983
sS'113529'
p1984
S'Foxtrot'
p1985
sS'104812'
p1986
S'Foxtrot'
p1987
sS'104813'
p1988
S'Foxtrot'
p1989
sS'104810'
p1990
S'Viennesewaltz'
p1991
sS'112922'
p1992
S'Rumba'
p1993
sS'104816'
p1994
S'Quickstep'
p1995
sS'112924'
p1996
S'Rumba'
p1997
sS'104814'
p1998
S'Foxtrot'
p1999
sS'104815'
p2000
S'Quickstep'
p2001
sS'112929'
p2002
S'Rumba'
p2003
sS'112928'
p2004
S'Rumba'
p2005
sS'112217'
p2006
S'Jive'
p2007
sS'112216'
p2008
S'Jive'
p2009
sS'112215'
p2010
S'Jive'
p2011
sS'112214'
p2012
S'Jive'
p2013
sS'112213'
p2014
S'Chacha'
p2015
sS'112212'
p2016
S'Chacha'
p2017
sS'112211'
p2018
S'Chacha'
p2019
sS'112210'
p2020
S'Chacha'
p2021
sS'112219'
p2022
S'Samba'
p2023
sS'112218'
p2024
S'Samba'
p2025
sS'108908'
p2026
S'Waltz'
p2027
sS'108909'
p2028
S'Waltz'
p2029
sS'108904'
p2030
S'Waltz'
p2031
sS'108905'
p2032
S'Waltz'
p2033
sS'108906'
p2034
S'Waltz'
p2035
sS'108907'
p2036
S'Waltz'
p2037
sS'108901'
p2038
S'Waltz'
p2039
sS'108902'
p2040
S'Waltz'
p2041
sS'108903'
p2042
S'Waltz'
p2043
sS'106719'
p2044
S'Foxtrot'
p2045
sS'106718'
p2046
S'Tango'
p2047
sS'106713'
p2048
S'Tango'
p2049
sS'106712'
p2050
S'Tango'
p2051
sS'106711'
p2052
S'Tango'
p2053
sS'106710'
p2054
S'Waltz'
p2055
sS'106717'
p2056
S'Tango'
p2057
sS'106716'
p2058
S'Tango'
p2059
sS'106715'
p2060
S'Tango'
p2061
sS'106714'
p2062
S'Tango'
p2063
sS'107619'
p2064
S'Chacha'
p2065
sS'107618'
p2066
S'Chacha'
p2067
sS'109217'
p2068
S'Foxtrot'
p2069
sS'107611'
p2070
S'Chacha'
p2071
sS'107610'
p2072
S'Samba'
p2073
sS'107613'
p2074
S'Chacha'
p2075
sS'107612'
p2076
S'Chacha'
p2077
sS'107615'
p2078
S'Chacha'
p2079
sS'107614'
p2080
S'Chacha'
p2081
sS'107617'
p2082
S'Chacha'
p2083
sS'107616'
p2084
S'Chacha'
p2085
sS'112103'
p2086
S'Samba'
p2087
sS'112102'
p2088
S'Samba'
p2089
sS'112101'
p2090
S'Samba'
p2091
sS'112107'
p2092
S'Chacha'
p2093
sS'112106'
p2094
S'Chacha'
p2095
sS'112105'
p2096
S'Samba'
p2097
sS'112104'
p2098
S'Samba'
p2099
sS'112109'
p2100
S'Chacha'
p2101
sS'112108'
p2102
S'Chacha'
p2103
sS'115219'
p2104
S'Samba'
p2105
sS'109015'
p2106
S'Tango'
p2107
sS'115108'
p2108
S'Foxtrot'
p2109
sS'115109'
p2110
S'Foxtrot'
p2111
sS'115106'
p2112
S'Foxtrot'
p2113
sS'115107'
p2114
S'Foxtrot'
p2115
sS'115104'
p2116
S'Foxtrot'
p2117
sS'115105'
p2118
S'Foxtrot'
p2119
sS'115102'
p2120
S'Foxtrot'
p2121
sS'115103'
p2122
S'Foxtrot'
p2123
sS'115101'
p2124
S'Foxtrot'
p2125
sS'109014'
p2126
S'Tango'
p2127
sS'111803'
p2128
S'Foxtrot'
p2129
sS'111802'
p2130
S'Foxtrot'
p2131
sS'111801'
p2132
S'Foxtrot'
p2133
sS'107106'
p2134
S'Tango'
p2135
sS'107101'
p2136
S'Waltz'
p2137
sS'111806'
p2138
S'Foxtrot'
p2139
sS'111805'
p2140
S'Foxtrot'
p2141
sS'111804'
p2142
S'Foxtrot'
p2143
sS'111809'
p2144
S'Foxtrot'
p2145
sS'111808'
p2146
S'Foxtrot'
p2147
sS'107109'
p2148
S'Tango'
p2149
sS'107108'
p2150
S'Tango'
p2151
sS'111817'
p2152
S'Quickstep'
p2153
sS'114109'
p2154
S'Tango'
p2155
sS'114108'
p2156
S'Tango'
p2157
sS'118808'
p2158
S'Samba'
p2159
sS'115214'
p2160
S'Samba'
p2161
sS'118809'
p2162
S'Samba'
p2163
sS'118040'
p2164
S'Jive'
p2165
sS'110518'
p2166
S'Quickstep'
p2167
sS'110519'
p2168
S'Quickstep'
p2169
sS'111409'
p2170
S'Waltz'
p2171
sS'110512'
p2172
S'Viennesewaltz'
p2173
sS'110513'
p2174
S'Viennesewaltz'
p2175
sS'110510'
p2176
S'Tango'
p2177
sS'110511'
p2178
S'Viennesewaltz'
p2179
sS'110516'
p2180
S'Foxtrot'
p2181
sS'110517'
p2182
S'Quickstep'
p2183
sS'110514'
p2184
S'Foxtrot'
p2185
sS'110515'
p2186
S'Foxtrot'
p2187
sS'114101'
p2188
S'Waltz'
p2189
sS'114509'
p2190
S'Chacha'
p2191
sS'114508'
p2192
S'Chacha'
p2193
sS'114505'
p2194
S'Samba'
p2195
sS'114504'
p2196
S'Samba'
p2197
sS'114507'
p2198
S'Chacha'
p2199
sS'114506'
p2200
S'Samba'
p2201
sS'114501'
p2202
S'Samba'
p2203
sS'111405'
p2204
S'Waltz'
p2205
sS'114503'
p2206
S'Samba'
p2207
sS'114502'
p2208
S'Samba'
p2209
sS'108306'
p2210
S'Foxtrot'
p2211
sS'108307'
p2212
S'Foxtrot'
p2213
sS'108304'
p2214
S'Foxtrot'
p2215
sS'108305'
p2216
S'Foxtrot'
p2217
sS'108302'
p2218
S'Foxtrot'
p2219
sS'108303'
p2220
S'Foxtrot'
p2221
sS'108301'
p2222
S'Foxtrot'
p2223
sS'111403'
p2224
S'Waltz'
p2225
sS'108308'
p2226
S'Foxtrot'
p2227
sS'108309'
p2228
S'Foxtrot'
p2229
sS'103619'
p2230
S'Jive'
p2231
sS'103618'
p2232
S'Samba'
p2233
sS'103615'
p2234
S'Rumba'
p2235
sS'103614'
p2236
S'Jive'
p2237
sS'103617'
p2238
S'Chacha'
p2239
sS'103616'
p2240
S'Rumba'
p2241
sS'103611'
p2242
S'Jive'
p2243
sS'103610'
p2244
S'Rumba'
p2245
sS'103613'
p2246
S'Jive'
p2247
sS'103612'
p2248
S'Jive'
p2249
sS'110426'
p2250
S'Waltz'
p2251
sS'110427'
p2252
S'Waltz'
p2253
sS'107828'
p2254
S'Foxtrot'
p2255
sS'107829'
p2256
S'Foxtrot'
p2257
sS'110422'
p2258
S'Waltz'
p2259
sS'110423'
p2260
S'Waltz'
p2261
sS'110420'
p2262
S'Quickstep'
p2263
sS'110421'
p2264
S'Waltz'
p2265
sS'107822'
p2266
S'Foxtrot'
p2267
sS'107823'
p2268
S'Foxtrot'
p2269
sS'107820'
p2270
S'Foxtrot'
p2271
sS'107821'
p2272
S'Foxtrot'
p2273
sS'107826'
p2274
S'Foxtrot'
p2275
sS'107827'
p2276
S'Foxtrot'
p2277
sS'107824'
p2278
S'Foxtrot'
p2279
sS'107825'
p2280
S'Foxtrot'
p2281
sS'109012'
p2282
S'Tango'
p2283
sS'115022'
p2284
S'Tango'
p2285
sS'117740'
p2286
S'Quickstep'
p2287
sS'117741'
p2288
S'Quickstep'
p2289
sS'115920'
p2290
S'Chacha'
p2291
sS'115921'
p2292
S'Chacha'
p2293
sS'115922'
p2294
S'Rumba'
p2295
sS'115923'
p2296
S'Rumba'
p2297
sS'115924'
p2298
S'Rumba'
p2299
sS'115925'
p2300
S'Rumba'
p2301
sS'115926'
p2302
S'Rumba'
p2303
sS'115927'
p2304
S'Rumba'
p2305
sS'114431'
p2306
S'Quickstep'
p2307
sS'114430'
p2308
S'Quickstep'
p2309
sS'114433'
p2310
S'Quickstep'
p2311
sS'114432'
p2312
S'Quickstep'
p2313
sS'114435'
p2314
S'Quickstep'
p2315
sS'114434'
p2316
S'Quickstep'
p2317
sS'114437'
p2318
S'Quickstep'
p2319
sS'114436'
p2320
S'Quickstep'
p2321
sS'107918'
p2322
S'Foxtrot'
p2323
sS'107919'
p2324
S'Foxtrot'
p2325
sS'107916'
p2326
S'Foxtrot'
p2327
sS'107917'
p2328
S'Foxtrot'
p2329
sS'107914'
p2330
S'Foxtrot'
p2331
sS'107915'
p2332
S'Foxtrot'
p2333
sS'107912'
p2334
S'Foxtrot'
p2335
sS'107913'
p2336
S'Foxtrot'
p2337
sS'107910'
p2338
S'Quickstep'
p2339
sS'107911'
p2340
S'Foxtrot'
p2341
sS'110220'
p2342
S'Foxtrot'
p2343
sS'110221'
p2344
S'Foxtrot'
p2345
sS'110222'
p2346
S'Foxtrot'
p2347
sS'110223'
p2348
S'Foxtrot'
p2349
sS'110224'
p2350
S'Foxtrot'
p2351
sS'110225'
p2352
S'Foxtrot'
p2353
sS'110226'
p2354
S'Foxtrot'
p2355
sS'110227'
p2356
S'Foxtrot'
p2357
sS'110228'
p2358
S'Foxtrot'
p2359
sS'110229'
p2360
S'Foxtrot'
p2361
sS'108007'
p2362
S'Quickstep'
p2363
sS'117520'
p2364
S'Tango'
p2365
sS'114725'
p2366
S'Foxtrot'
p2367
sS'114724'
p2368
S'Foxtrot'
p2369
sS'114727'
p2370
S'Foxtrot'
p2371
sS'114726'
p2372
S'Foxtrot'
p2373
sS'114721'
p2374
S'Foxtrot'
p2375
sS'114720'
p2376
S'Tango'
p2377
sS'114723'
p2378
S'Foxtrot'
p2379
sS'114722'
p2380
S'Foxtrot'
p2381
sS'114729'
p2382
S'Quickstep'
p2383
sS'114728'
p2384
S'Quickstep'
p2385
sS'113002'
p2386
S'Waltz'
p2387
sS'107338'
p2388
S'Viennesewaltz'
p2389
sS'112518'
p2390
S'Samba'
p2391
sS'101001'
p2392
S'Waltz'
p2393
sS'117919'
p2394
S'Tango'
p2395
sS'112519'
p2396
S'Samba'
p2397
sS'113629'
p2398
S'Rumba'
p2399
sS'113628'
p2400
S'Rumba'
p2401
sS'113625'
p2402
S'Rumba'
p2403
sS'113624'
p2404
S'Rumba'
p2405
sS'113627'
p2406
S'Rumba'
p2407
sS'113626'
p2408
S'Rumba'
p2409
sS'113621'
p2410
S'Chacha'
p2411
sS'113620'
p2412
S'Chacha'
p2413
sS'113623'
p2414
S'Rumba'
p2415
sS'113622'
p2416
S'Chacha'
p2417
sS'100809'
p2418
S'Rumba'
p2419
sS'117426'
p2420
S'Rumba'
p2421
sS'118208'
p2422
S'Rumba'
p2423
sS'118209'
p2424
S'Rumba'
p2425
sS'118206'
p2426
S'Rumba'
p2427
sS'118207'
p2428
S'Rumba'
p2429
sS'118204'
p2430
S'Rumba'
p2431
sS'118205'
p2432
S'Rumba'
p2433
sS'118202'
p2434
S'Rumba'
p2435
sS'118203'
p2436
S'Rumba'
p2437
sS'118201'
p2438
S'Rumba'
p2439
sS'113531'
p2440
S'Foxtrot'
p2441
sS'113530'
p2442
S'Foxtrot'
p2443
sS'113533'
p2444
S'Quickstep'
p2445
sS'113532'
p2446
S'Foxtrot'
p2447
sS'113535'
p2448
S'Quickstep'
p2449
sS'113534'
p2450
S'Quickstep'
p2451
sS'113537'
p2452
S'Quickstep'
p2453
sS'113536'
p2454
S'Quickstep'
p2455
sS'113539'
p2456
S'Quickstep'
p2457
sS'113538'
p2458
S'Quickstep'
p2459
sS'117429'
p2460
S'Rumba'
p2461
sS'108505'
p2462
S'Samba'
p2463
sS'105406'
p2464
S'Chacha'
p2465
sS'105407'
p2466
S'Chacha'
p2467
sS'105404'
p2468
S'Samba'
p2469
sS'105405'
p2470
S'Chacha'
p2471
sS'105402'
p2472
S'Samba'
p2473
sS'105403'
p2474
S'Samba'
p2475
sS'104807'
p2476
S'Tango'
p2477
sS'105401'
p2478
S'Samba'
p2479
sS'112914'
p2480
S'Samba'
p2481
sS'112915'
p2482
S'Samba'
p2483
sS'112916'
p2484
S'Samba'
p2485
sS'112917'
p2486
S'Samba'
p2487
sS'112910'
p2488
S'Chacha'
p2489
sS'112911'
p2490
S'Samba'
p2491
sS'105408'
p2492
S'Rumba'
p2493
sS'105409'
p2494
S'Rumba'
p2495
sS'113114'
p2496
S'Tango'
p2497
sS'113113'
p2498
S'Tango'
p2499
sS'113112'
p2500
S'Tango'
p2501
sS'116015'
p2502
S'Foxtrot'
p2503
sS'116014'
p2504
S'Foxtrot'
p2505
sS'116017'
p2506
S'Quickstep'
p2507
sS'116016'
p2508
S'Foxtrot'
p2509
sS'116011'
p2510
S'Viennesewaltz'
p2511
sS'116010'
p2512
S'Viennesewaltz'
p2513
sS'116013'
p2514
S'Foxtrot'
p2515
sS'116012'
p2516
S'Viennesewaltz'
p2517
sS'109409'
p2518
S'Tango'
p2519
sS'113110'
p2520
S'Waltz'
p2521
sS'116019'
p2522
S'Quickstep'
p2523
sS'116018'
p2524
S'Quickstep'
p2525
sS'108919'
p2526
S'Waltz'
p2527
sS'108918'
p2528
S'Waltz'
p2529
sS'108913'
p2530
S'Waltz'
p2531
sS'108912'
p2532
S'Waltz'
p2533
sS'108911'
p2534
S'Waltz'
p2535
sS'108910'
p2536
S'Waltz'
p2537
sS'108917'
p2538
S'Waltz'
p2539
sS'108916'
p2540
S'Waltz'
p2541
sS'108915'
p2542
S'Waltz'
p2543
sS'108914'
p2544
S'Waltz'
p2545
sS'108041'
p2546
S'Viennesewaltz'
p2547
sS'108040'
p2548
S'Viennesewaltz'
p2549
sS'112008'
p2550
S'Tango'
p2551
sS'112009'
p2552
S'Tango'
p2553
sS'112002'
p2554
S'Waltz'
p2555
sS'112003'
p2556
S'Waltz'
p2557
sS'112001'
p2558
S'Waltz'
p2559
sS'112006'
p2560
S'Tango'
p2561
sS'112007'
p2562
S'Tango'
p2563
sS'112004'
p2564
S'Waltz'
p2565
sS'112005'
p2566
S'Waltz'
p2567
sS'107624'
p2568
S'Rumba'
p2569
sS'107625'
p2570
S'Rumba'
p2571
sS'107626'
p2572
S'Rumba'
p2573
sS'107627'
p2574
S'Rumba'
p2575
sS'107620'
p2576
S'Chacha'
p2577
sS'113840'
p2578
S'Jive'
p2579
sS'107622'
p2580
S'Chacha'
p2581
sS'107623'
p2582
S'Rumba'
p2583
sS'118505'
p2584
S'Samba'
p2585
sS'113118'
p2586
S'Viennesewaltz'
p2587
sS'107628'
p2588
S'Rumba'
p2589
sS'107629'
p2590
S'Rumba'
p2591
sS'113001'
p2592
S'Waltz'
p2593
sS'118504'
p2594
S'Samba'
p2595
sS'109321'
p2596
S'Quickstep'
p2597
sS'118506'
p2598
S'Samba'
p2599
sS'111605'
p2600
S'Samba'
p2601
sS'114315'
p2602
S'Rumba'
p2603
sS'109402'
p2604
S'Waltz'
p2605
sS'112717'
p2606
S'Foxtrot'
p2607
sS'112714'
p2608
S'Viennesewaltz'
p2609
sS'112715'
p2610
S'Foxtrot'
p2611
sS'112712'
p2612
S'Viennesewaltz'
p2613
sS'115118'
p2614
S'Quickstep'
p2615
sS'112710'
p2616
S'Tango'
p2617
sS'112711'
p2618
S'Viennesewaltz'
p2619
sS'115115'
p2620
S'Quickstep'
p2621
sS'115114'
p2622
S'Quickstep'
p2623
sS'109408'
p2624
S'Tango'
p2625
sS'115116'
p2626
S'Quickstep'
p2627
sS'115111'
p2628
S'Quickstep'
p2629
sS'115110'
p2630
S'Foxtrot'
p2631
sS'112718'
p2632
S'Foxtrot'
p2633
sS'112719'
p2634
S'Quickstep'
p2635
sS'114429'
p2636
S'Foxtrot'
p2637
sS'112511'
p2638
S'Samba'
p2639
sS'109011'
p2640
S'Tango'
p2641
sS'109010'
p2642
S'Tango'
p2643
sS'108620'
p2644
S'Samba'
p2645
sS'109013'
p2646
S'Tango'
p2647
sS'108238'
p2648
S'Viennesewaltz'
p2649
sS'107336'
p2650
S'Viennesewaltz'
p2651
sS'111014'
p2652
S'Tango'
p2653
sS'108504'
p2654
S'Samba'
p2655
sS'111010'
p2656
S'Waltz'
p2657
sS'111011'
p2658
S'Tango'
p2659
sS'111012'
p2660
S'Tango'
p2661
sS'111013'
p2662
S'Tango'
p2663
sS'108239'
p2664
S'Viennesewaltz'
p2665
sS'114426'
p2666
S'Foxtrot'
p2667
sS'109007'
p2668
S'Tango'
p2669
sS'112909'
p2670
S'Chacha'
p2671
sS'114427'
p2672
S'Foxtrot'
p2673
sS'112513'
p2674
S'Samba'
p2675
sS'108508'
p2676
S'Samba'
p2677
sS'112908'
p2678
S'Chacha'
p2679
sS'109318'
p2680
S'Quickstep'
p2681
sS'109319'
p2682
S'Quickstep'
p2683
sS'109316'
p2684
S'Quickstep'
p2685
sS'109317'
p2686
S'Quickstep'
p2687
sS'109314'
p2688
S'Quickstep'
p2689
sS'109315'
p2690
S'Quickstep'
p2691
sS'109312'
p2692
S'Quickstep'
p2693
sS'109313'
p2694
S'Quickstep'
p2695
sS'109310'
p2696
S'Quickstep'
p2697
sS'109311'
p2698
S'Quickstep'
p2699
sS'106508'
p2700
S'Viennesewaltz'
p2701
sS'106509'
p2702
S'Viennesewaltz'
p2703
sS'106506'
p2704
S'Tango'
p2705
sS'106507'
p2706
S'Tango'
p2707
sS'106504'
p2708
S'Waltz'
p2709
sS'106505'
p2710
S'Tango'
p2711
sS'106502'
p2712
S'Waltz'
p2713
sS'106503'
p2714
S'Waltz'
p2715
sS'106501'
p2716
S'Waltz'
p2717
sS'118822'
p2718
S'Rumba'
p2719
sS'111908'
p2720
S'Samba'
p2721
sS'111909'
p2722
S'Samba'
p2723
sS'118823'
p2724
S'Rumba'
p2725
sS'111902'
p2726
S'Samba'
p2727
sS'111903'
p2728
S'Samba'
p2729
sS'111901'
p2730
S'Samba'
p2731
sS'111906'
p2732
S'Samba'
p2733
sS'111907'
p2734
S'Samba'
p2735
sS'111904'
p2736
S'Samba'
p2737
sS'111905'
p2738
S'Samba'
p2739
sS'117621'
p2740
S'Jive'
p2741
sS'117620'
p2742
S'Rumba'
p2743
sS'117623'
p2744
S'Jive'
p2745
sS'117622'
p2746
S'Jive'
p2747
sS'117625'
p2748
S'Jive'
p2749
sS'117624'
p2750
S'Jive'
p2751
sS'110501'
p2752
S'Waltz'
p2753
sS'105419'
p2754
S'Rumba'
p2755
sS'110503'
p2756
S'Waltz'
p2757
sS'110502'
p2758
S'Waltz'
p2759
sS'110505'
p2760
S'Waltz'
p2761
sS'110504'
p2762
S'Waltz'
p2763
sS'110507'
p2764
S'Waltz'
p2765
sS'110506'
p2766
S'Waltz'
p2767
sS'115842'
p2768
S'Quickstep'
p2769
sS'115841'
p2770
S'Quickstep'
p2771
sS'115840'
p2772
S'Quickstep'
p2773
sS'118824'
p2774
S'Rumba'
p2775
sS'115124'
p2776
S'Waltz'
p2777
sS'118825'
p2778
S'Rumba'
p2779
sS'108315'
p2780
S'Quickstep'
p2781
sS'108314'
p2782
S'Quickstep'
p2783
sS'108317'
p2784
S'Quickstep'
p2785
sS'108316'
p2786
S'Quickstep'
p2787
sS'108311'
p2788
S'Quickstep'
p2789
sS'108310'
p2790
S'Foxtrot'
p2791
sS'108313'
p2792
S'Quickstep'
p2793
sS'108312'
p2794
S'Quickstep'
p2795
sS'109220'
p2796
S'Foxtrot'
p2797
sS'108319'
p2798
S'Quickstep'
p2799
sS'108318'
p2800
S'Quickstep'
p2801
sS'113007'
p2802
S'Waltz'
p2803
sS'107839'
p2804
S'Tango'
p2805
sS'110434'
p2806
S'Tango'
p2807
sS'110437'
p2808
S'Tango'
p2809
sS'110436'
p2810
S'Tango'
p2811
sS'110431'
p2812
S'Tango'
p2813
sS'110430'
p2814
S'Waltz'
p2815
sS'110433'
p2816
S'Tango'
p2817
sS'110432'
p2818
S'Tango'
p2819
sS'107831'
p2820
S'Viennesewaltz'
p2821
sS'107830'
p2822
S'Foxtrot'
p2823
sS'107833'
p2824
S'Viennesewaltz'
p2825
sS'107832'
p2826
S'Viennesewaltz'
p2827
sS'107835'
p2828
S'Tango'
p2829
sS'107834'
p2830
S'Tango'
p2831
sS'107837'
p2832
S'Tango'
p2833
sS'107836'
p2834
S'Tango'
p2835
sS'114404'
p2836
S'Waltz'
p2837
sS'114405'
p2838
S'Waltz'
p2839
sS'114406'
p2840
S'Waltz'
p2841
sS'114407'
p2842
S'Waltz'
p2843
sS'114401'
p2844
S'Waltz'
p2845
sS'114402'
p2846
S'Waltz'
p2847
sS'114403'
p2848
S'Waltz'
p2849
sS'114408'
p2850
S'Waltz'
p2851
sS'114409'
p2852
S'Waltz'
p2853
sS'111111'
p2854
S'Viennesewaltz'
p2855
sS'115939'
p2856
S'Jive'
p2857
sS'115938'
p2858
S'Jive'
p2859
sS'115937'
p2860
S'Jive'
p2861
sS'115936'
p2862
S'Jive'
p2863
sS'115935'
p2864
S'Jive'
p2865
sS'115416'
p2866
S'Tango'
p2867
sS'115931'
p2868
S'Rumba'
p2869
sS'115930'
p2870
S'Rumba'
p2871
sS'111839'
p2872
S'Tango'
p2873
sS'107909'
p2874
S'Quickstep'
p2875
sS'107908'
p2876
S'Quickstep'
p2877
sS'107905'
p2878
S'Quickstep'
p2879
sS'107904'
p2880
S'Quickstep'
p2881
sS'107907'
p2882
S'Quickstep'
p2883
sS'107906'
p2884
S'Quickstep'
p2885
sS'107901'
p2886
S'Quickstep'
p2887
sS'107903'
p2888
S'Quickstep'
p2889
sS'107902'
p2890
S'Quickstep'
p2891
sS'115412'
p2892
S'Tango'
p2893
sS'116808'
p2894
S'Rumba'
p2895
sS'116809'
p2896
S'Rumba'
p2897
sS'116806'
p2898
S'Chacha'
p2899
sS'116807'
p2900
S'Rumba'
p2901
sS'116804'
p2902
S'Chacha'
p2903
sS'116805'
p2904
S'Chacha'
p2905
sS'116802'
p2906
S'Samba'
p2907
sS'116803'
p2908
S'Samba'
p2909
sS'116801'
p2910
S'Samba'
p2911
sS'110233'
p2912
S'Foxtrot'
p2913
sS'110232'
p2914
S'Foxtrot'
p2915
sS'110231'
p2916
S'Foxtrot'
p2917
sS'110230'
p2918
S'Foxtrot'
p2919
sS'114710'
p2920
S'Waltz'
p2921
sS'114711'
p2922
S'Waltz'
p2923
sS'114712'
p2924
S'Waltz'
p2925
sS'114713'
p2926
S'Tango'
p2927
sS'114714'
p2928
S'Tango'
p2929
sS'114715'
p2930
S'Tango'
p2931
sS'114716'
p2932
S'Tango'
p2933
sS'114717'
p2934
S'Tango'
p2935
sS'114718'
p2936
S'Tango'
p2937
sS'114719'
p2938
S'Tango'
p2939
sS'118019'
p2940
S'Samba'
p2941
sS'113404'
p2942
S'Samba'
p2943
sS'118018'
p2944
S'Samba'
p2945
sS'113821'
p2946
S'Rumba'
p2947
sS'117519'
p2948
S'Tango'
p2949
sS'117518'
p2950
S'Tango'
p2951
sS'113006'
p2952
S'Waltz'
p2953
sS'117517'
p2954
S'Tango'
p2955
sS'117516'
p2956
S'Tango'
p2957
sS'116712'
p2958
S'Rumba'
p2959
sS'116713'
p2960
S'Rumba'
p2961
sS'116710'
p2962
S'Chacha'
p2963
sS'116711'
p2964
S'Rumba'
p2965
sS'116716'
p2966
S'Jive'
p2967
sS'116717'
p2968
S'Jive'
p2969
sS'116714'
p2970
S'Rumba'
p2971
sS'116715'
p2972
S'Jive'
p2973
sS'113820'
p2974
S'Samba'
p2975
sS'102609'
p2976
S'Tango'
p2977
sS'111604'
p2978
S'Samba'
p2979
sS'117514'
p2980
S'Tango'
p2981
sS'102608'
p2982
S'Tango'
p2983
sS'118017'
p2984
S'Samba'
p2985
sS'112417'
p2986
S'Chacha'
p2987
sS'107110'
p2988
S'Viennesewaltz'
p2989
sS'118016'
p2990
S'Samba'
p2991
sS'112619'
p2992
S'Tango'
p2993
sS'113618'
p2994
S'Chacha'
p2995
sS'113619'
p2996
S'Chacha'
p2997
sS'113610'
p2998
S'Samba'
p2999
sS'113611'
p3000
S'Samba'
p3001
sS'113612'
p3002
S'Chacha'
p3003
sS'113613'
p3004
S'Chacha'
p3005
sS'113614'
p3006
S'Chacha'
p3007
sS'113615'
p3008
S'Chacha'
p3009
sS'113616'
p3010
S'Chacha'
p3011
sS'113617'
p3012
S'Chacha'
p3013
sS'102603'
p3014
S'Waltz'
p3015
sS'102602'
p3016
S'Waltz'
p3017
sS'118219'
p3018
S'Rumba'
p3019
sS'118218'
p3020
S'Rumba'
p3021
sS'118215'
p3022
S'Rumba'
p3023
sS'118214'
p3024
S'Rumba'
p3025
sS'118217'
p3026
S'Rumba'
p3027
sS'118216'
p3028
S'Rumba'
p3029
sS'118211'
p3030
S'Rumba'
p3031
sS'118210'
p3032
S'Rumba'
p3033
sS'118213'
p3034
S'Rumba'
p3035
sS'118212'
p3036
S'Rumba'
p3037
sS'113508'
p3038
S'Waltz'
p3039
sS'113509'
p3040
S'Waltz'
p3041
sS'108706'
p3042
S'Chacha'
p3043
sS'113504'
p3044
S'Waltz'
p3045
sS'113505'
p3046
S'Waltz'
p3047
sS'113506'
p3048
S'Waltz'
p3049
sS'113507'
p3050
S'Waltz'
p3051
sS'108804'
p3052
S'Samba'
p3053
sS'113501'
p3054
S'Waltz'
p3055
sS'113502'
p3056
S'Waltz'
p3057
sS'113503'
p3058
S'Waltz'
p3059
sS'105415'
p3060
S'Jive'
p3061
sS'105414'
p3062
S'Jive'
p3063
sS'105417'
p3064
S'Chacha'
p3065
sS'105416'
p3066
S'Samba'
p3067
sS'105411'
p3068
S'Rumba'
p3069
sS'105410'
p3070
S'Rumba'
p3071
sS'105413'
p3072
S'Jive'
p3073
sS'105412'
p3074
S'Rumba'
p3075
sS'112903'
p3076
S'Chacha'
p3077
sS'112902'
p3078
S'Chacha'
p3079
sS'112901'
p3080
S'Chacha'
p3081
sS'112907'
p3082
S'Chacha'
p3083
sS'105418'
p3084
S'Rumba'
p3085
sS'112905'
p3086
S'Chacha'
p3087
sS'112904'
p3088
S'Chacha'
p3089
sS'108707'
p3090
S'Chacha'
p3091
sS'113824'
p3092
S'Rumba'
p3093
sS'109219'
p3094
S'Foxtrot'
p3095
sS'116020'
p3096
S'Quickstep'
p3097
sS'116021'
p3098
S'Quickstep'
p3099
sS'118436'
p3100
S'Jive'
p3101
sS'112529'
p3102
S'Rumba'
p3103
sS'108704'
p3104
S'Chacha'
p3105
sS'112407'
p3106
S'Samba'
p3107
sS'112019'
p3108
S'Quickstep'
p3109
sS'112018'
p3110
S'Foxtrot'
p3111
sS'112011'
p3112
S'Viennesewaltz'
p3113
sS'112010'
p3114
S'Viennesewaltz'
p3115
sS'112013'
p3116
S'Viennesewaltz'
p3117
sS'112012'
p3118
S'Viennesewaltz'
p3119
sS'112015'
p3120
S'Foxtrot'
p3121
sS'112014'
p3122
S'Foxtrot'
p3123
sS'112017'
p3124
S'Foxtrot'
p3125
sS'112016'
p3126
S'Foxtrot'
p3127
sS'107633'
p3128
S'Jive'
p3129
sS'104909'
p3130
S'Viennesewaltz'
p3131
sS'107631'
p3132
S'Rumba'
p3133
sS'107630'
p3134
S'Rumba'
p3135
sS'107637'
p3136
S'Jive'
p3137
sS'107636'
p3138
S'Jive'
p3139
sS'107635'
p3140
S'Jive'
p3141
sS'107634'
p3142
S'Jive'
p3143
sS'118416'
p3144
S'Chacha'
p3145
sS'104901'
p3146
S'Waltz'
p3147
sS'107639'
p3148
S'Jive'
p3149
sS'107638'
p3150
S'Jive'
p3151
sS'104904'
p3152
S'Waltz'
p3153
sS'104905'
p3154
S'Waltz'
p3155
sS'104906'
p3156
S'Tango'
p3157
sS'104907'
p3158
S'Tango'
p3159
sS'115612'
p3160
S'Samba'
p3161
sS'115613'
p3162
S'Samba'
p3163
sS'115610'
p3164
S'Chacha'
p3165
sS'115611'
p3166
S'Samba'
p3167
sS'115616'
p3168
S'Samba'
p3169
sS'115617'
p3170
S'Samba'
p3171
sS'115614'
p3172
S'Samba'
p3173
sS'115615'
p3174
S'Samba'
p3175
sS'115618'
p3176
S'Samba'
p3177
sS'115619'
p3178
S'Samba'
p3179
sS'115125'
p3180
S'Waltz'
p3181
sS'112705'
p3182
S'Waltz'
p3183
sS'109410'
p3184
S'Tango'
p3185
sS'109413'
p3186
S'Viennesewaltz'
p3187
sS'109412'
p3188
S'Viennesewaltz'
p3189
sS'109415'
p3190
S'Foxtrot'
p3191
sS'109414'
p3192
S'Viennesewaltz'
p3193
sS'109417'
p3194
S'Foxtrot'
p3195
sS'109416'
p3196
S'Foxtrot'
p3197
sS'115120'
p3198
S'Quickstep'
p3199
sS'115433'
p3200
S'Tango'
p3201
sS'115122'
p3202
S'Waltz'
p3203
sS'115431'
p3204
S'Tango'
p3205
sS'112709'
p3206
S'Tango'
p3207
sS'112708'
p3208
S'Tango'
p3209
sS'115434'
p3210
S'Tango'
p3211
sS'115435'
p3212
S'Tango'
p3213
sS'108412'
p3214
S'Rumba'
p3215
sS'108413'
p3216
S'Rumba'
p3217
sS'108410'
p3218
S'Rumba'
p3219
sS'108411'
p3220
S'Rumba'
p3221
sS'104902'
p3222
S'Waltz'
p3223
sS'108414'
p3224
S'Rumba'
p3225
sS'108415'
p3226
S'Rumba'
p3227
sS'104903'
p3228
S'Waltz'
p3229
sS'110639'
p3230
S'Quickstep'
p3231
sS'111009'
p3232
S'Waltz'
p3233
sS'110638'
p3234
S'Quickstep'
p3235
sS'115728'
p3236
S'Waltz'
p3237
sS'115729'
p3238
S'Waltz'
p3239
sS'115726'
p3240
S'Waltz'
p3241
sS'111002'
p3242
S'Waltz'
p3243
sS'111001'
p3244
S'Waltz'
p3245
sS'115725'
p3246
S'Waltz'
p3247
sS'111007'
p3248
S'Waltz'
p3249
sS'111006'
p3250
S'Waltz'
p3251
sS'115720'
p3252
S'Quickstep'
p3253
sS'115721'
p3254
S'Waltz'
p3255
sS'118412'
p3256
S'Chacha'
p3257
sS'108527'
p3258
S'Rumba'
p3259
sS'108524'
p3260
S'Rumba'
p3261
sS'108525'
p3262
S'Rumba'
p3263
sS'109309'
p3264
S'Quickstep'
p3265
sS'109308'
p3266
S'Quickstep'
p3267
sS'108520'
p3268
S'Chacha'
p3269
sS'108521'
p3270
S'Rumba'
p3271
sS'109305'
p3272
S'Quickstep'
p3273
sS'109304'
p3274
S'Quickstep'
p3275
sS'109307'
p3276
S'Quickstep'
p3277
sS'109306'
p3278
S'Quickstep'
p3279
sS'109301'
p3280
S'Quickstep'
p3281
sS'109303'
p3282
S'Quickstep'
p3283
sS'109302'
p3284
S'Quickstep'
p3285
sS'106519'
p3286
S'Foxtrot'
p3287
sS'106518'
p3288
S'Viennesewaltz'
p3289
sS'106515'
p3290
S'Quickstep'
p3291
sS'106514'
p3292
S'Quickstep'
p3293
sS'106517'
p3294
S'Tango'
p3295
sS'106516'
p3296
S'Waltz'
p3297
sS'106511'
p3298
S'Foxtrot'
p3299
sS'106510'
p3300
S'Foxtrot'
p3301
sS'106513'
p3302
S'Quickstep'
p3303
sS'106512'
p3304
S'Foxtrot'
p3305
sS'111919'
p3306
S'Chacha'
p3307
sS'111918'
p3308
S'Chacha'
p3309
sS'111911'
p3310
S'Chacha'
p3311
sS'111910'
p3312
S'Samba'
p3313
sS'111913'
p3314
S'Chacha'
p3315
sS'111912'
p3316
S'Chacha'
p3317
sS'111915'
p3318
S'Chacha'
p3319
sS'111914'
p3320
S'Chacha'
p3321
sS'111917'
p3322
S'Chacha'
p3323
sS'111916'
p3324
S'Chacha'
p3325
sS'117618'
p3326
S'Rumba'
p3327
sS'117619'
p3328
S'Rumba'
p3329
sS'118008'
p3330
S'Chacha'
p3331
sS'114520'
p3332
S'Jive'
p3333
sS'117614'
p3334
S'Chacha'
p3335
sS'117615'
p3336
S'Rumba'
p3337
sS'117616'
p3338
S'Rumba'
p3339
sS'117617'
p3340
S'Rumba'
p3341
sS'117610'
p3342
S'Chacha'
p3343
sS'117611'
p3344
S'Chacha'
p3345
sS'117612'
p3346
S'Chacha'
p3347
sS'117613'
p3348
S'Chacha'
p3349
sS'113941'
p3350
S'Jive'
p3351
sS'106008'
p3352
S'Chacha'
p3353
sS'108320'
p3354
S'Quickstep'
p3355
sS'108321'
p3356
S'Waltz'
p3357
sS'108322'
p3358
S'Waltz'
p3359
sS'108323'
p3360
S'Waltz'
p3361
sS'108324'
p3362
S'Waltz'
p3363
sS'108325'
p3364
S'Waltz'
p3365
sS'108326'
p3366
S'Waltz'
p3367
sS'108327'
p3368
S'Waltz'
p3369
sS'108328'
p3370
S'Waltz'
p3371
sS'108329'
p3372
S'Waltz'
p3373
sS'107334'
p3374
S'Foxtrot'
p3375
sS'107335'
p3376
S'Viennesewaltz'
p3377
sS'107332'
p3378
S'Foxtrot'
p3379
sS'107333'
p3380
S'Foxtrot'
p3381
sS'107330'
p3382
S'Foxtrot'
p3383
sS'107331'
p3384
S'Foxtrot'
p3385
sS'113942'
p3386
S'Jive'
p3387
sS'112520'
p3388
S'Samba'
p3389
sS'110401'
p3390
S'Foxtrot'
p3391
sS'110402'
p3392
S'Foxtrot'
p3393
sS'110403'
p3394
S'Foxtrot'
p3395
sS'110404'
p3396
S'Foxtrot'
p3397
sS'110405'
p3398
S'Foxtrot'
p3399
sS'110406'
p3400
S'Foxtrot'
p3401
sS'110407'
p3402
S'Foxtrot'
p3403
sS'110408'
p3404
S'Foxtrot'
p3405
sS'110409'
p3406
S'Foxtrot'
p3407
sS'113003'
p3408
S'Waltz'
p3409
sS'114413'
p3410
S'Tango'
p3411
sS'114412'
p3412
S'Tango'
p3413
sS'114411'
p3414
S'Tango'
p3415
sS'114410'
p3416
S'Waltz'
p3417
sS'114417'
p3418
S'Tango'
p3419
sS'114416'
p3420
S'Tango'
p3421
sS'114415'
p3422
S'Tango'
p3423
sS'114414'
p3424
S'Tango'
p3425
sS'113005'
p3426
S'Waltz'
p3427
sS'114419'
p3428
S'Tango'
p3429
sS'114418'
p3430
S'Tango'
p3431
sS'113004'
p3432
S'Waltz'
p3433
sS'109120'
p3434
S'Viennesewaltz'
p3435
sS'115942'
p3436
S'Jive'
p3437
sS'115940'
p3438
S'Jive'
p3439
sS'115941'
p3440
S'Jive'
p3441
sS'108805'
p3442
S'Samba'
p3443
sS'118740'
p3444
S'Viennesewaltz'
p3445
sS'107938'
p3446
S'Tango'
p3447
sS'107939'
p3448
S'Viennesewaltz'
p3449
sS'113008'
p3450
S'Waltz'
p3451
sS'107930'
p3452
S'Waltz'
p3453
sS'107931'
p3454
S'Waltz'
p3455
sS'107932'
p3456
S'Waltz'
p3457
sS'107933'
p3458
S'Waltz'
p3459
sS'107934'
p3460
S'Tango'
p3461
sS'107935'
p3462
S'Tango'
p3463
sS'107936'
p3464
S'Tango'
p3465
sS'107937'
p3466
S'Tango'
p3467
sS'117816'
p3468
S'Chacha'
p3469
sS'115128'
p3470
S'Waltz'
p3471
sS'117814'
p3472
S'Chacha'
p3473
sS'117815'
p3474
S'Chacha'
p3475
sS'117812'
p3476
S'Chacha'
p3477
sS'117813'
p3478
S'Chacha'
p3479
sS'117810'
p3480
S'Samba'
p3481
sS'112704'
p3482
S'Waltz'
p3483
sS'116815'
p3484
S'Waltz'
p3485
sS'116814'
p3486
S'Waltz'
p3487
sS'116817'
p3488
S'Tango'
p3489
sS'116816'
p3490
S'Tango'
p3491
sS'116811'
p3492
S'Jive'
p3493
sS'112707'
p3494
S'Tango'
p3495
sS'117818'
p3496
S'Chacha'
p3497
sS'116812'
p3498
S'Jive'
p3499
sS'115439'
p3500
S'Tango'
p3501
sS'112701'
p3502
S'Waltz'
p3503
sS'112703'
p3504
S'Waltz'
p3505
sS'114709'
p3506
S'Waltz'
p3507
sS'114708'
p3508
S'Waltz'
p3509
sS'114707'
p3510
S'Waltz'
p3511
sS'114706'
p3512
S'Waltz'
p3513
sS'114705'
p3514
S'Waltz'
p3515
sS'112702'
p3516
S'Waltz'
p3517
sS'114703'
p3518
S'Waltz'
p3519
sS'114702'
p3520
S'Waltz'
p3521
sS'114701'
p3522
S'Waltz'
p3523
sS'107804'
p3524
S'Waltz'
p3525
sS'115432'
p3526
S'Tango'
p3527
sS'107806'
p3528
S'Waltz'
p3529
sS'107807'
p3530
S'Waltz'
p3531
sS'107801'
p3532
S'Waltz'
p3533
sS'107802'
p3534
S'Waltz'
p3535
sS'115121'
p3536
S'Waltz'
p3537
sS'107808'
p3538
S'Waltz'
p3539
sS'115430'
p3540
S'Tango'
p3541
sS'115123'
p3542
S'Waltz'
p3543
sS'108806'
p3544
S'Samba'
p3545
sS'115436'
p3546
S'Tango'
p3547
sS'104209'
p3548
S'Viennesewaltz'
p3549
sS'115437'
p3550
S'Tango'
p3551
sS'116709'
p3552
S'Chacha'
p3553
sS'116708'
p3554
S'Chacha'
p3555
sS'115119'
p3556
S'Quickstep'
p3557
sS'115126'
p3558
S'Waltz'
p3559
sS'116701'
p3560
S'Samba'
p3561
sS'116703'
p3562
S'Samba'
p3563
sS'115127'
p3564
S'Waltz'
p3565
sS'116705'
p3566
S'Samba'
p3567
sS'116704'
p3568
S'Samba'
p3569
sS'116707'
p3570
S'Chacha'
p3571
sS'116706'
p3572
S'Chacha'
p3573
sS'104203'
p3574
S'Waltz'
p3575
sS'109106'
p3576
S'Viennesewaltz'
p3577
sS'111938'
p3578
S'Jive'
p3579
sS'118723'
p3580
S'Waltz'
p3581
sS'118722'
p3582
S'Waltz'
p3583
sS'118725'
p3584
S'Waltz'
p3585
sS'109102'
p3586
S'Viennesewaltz'
p3587
sS'116140'
p3588
S'Jive'
p3589
sS'104205'
p3590
S'Waltz'
p3591
sS'118726'
p3592
S'Waltz'
p3593
sS'105509'
p3594
S'Viennesewaltz'
p3595
sS'118220'
p3596
S'Rumba'
p3597
sS'118221'
p3598
S'Rumba'
p3599
sS'118222'
p3600
S'Rumba'
p3601
sS'118223'
p3602
S'Rumba'
p3603
sS'105507'
p3604
S'Tango'
p3605
sS'113519'
p3606
S'Viennesewaltz'
p3607
sS'113518'
p3608
S'Viennesewaltz'
p3609
sS'113637'
p3610
S'Jive'
p3611
sS'113513'
p3612
S'Tango'
p3613
sS'113512'
p3614
S'Waltz'
p3615
sS'111713'
p3616
S'Jive'
p3617
sS'113510'
p3618
S'Waltz'
p3619
sS'113517'
p3620
S'Tango'
p3621
sS'113040'
p3622
S'Quickstep'
p3623
sS'113515'
p3624
S'Tango'
p3625
sS'113514'
p3626
S'Tango'
p3627
sS'105420'
p3628
S'Jive'
p3629
sS'112640'
p3630
S'Viennesewaltz'
p3631
sS'112641'
p3632
S'Viennesewaltz'
p3633
sS'112642'
p3634
S'Viennesewaltz'
p3635
sS'112643'
p3636
S'Viennesewaltz'
p3637
sS'112644'
p3638
S'Viennesewaltz'
p3639
sS'105502'
p3640
S'Waltz'
p3641
sS'105501'
p3642
S'Waltz'
p3643
sS'111712'
p3644
S'Rumba'
p3645
sS'113631'
p3646
S'Rumba'
p3647
sS'113607'
p3648
S'Samba'
p3649
sS'113606'
p3650
S'Samba'
p3651
sS'113605'
p3652
S'Samba'
p3653
sS'113604'
p3654
S'Samba'
p3655
sS'113603'
p3656
S'Samba'
p3657
sS'113602'
p3658
S'Samba'
p3659
sS'113601'
p3660
S'Samba'
p3661
sS'113609'
p3662
S'Samba'
p3663
sS'113608'
p3664
S'Samba'
p3665
sS'112802'
p3666
S'Foxtrot'
p3667
sS'104916'
p3668
S'Quickstep'
p3669
sS'104915'
p3670
S'Quickstep'
p3671
sS'104914'
p3672
S'Foxtrot'
p3673
sS'104913'
p3674
S'Foxtrot'
p3675
sS'112807'
p3676
S'Foxtrot'
p3677
sS'112804'
p3678
S'Foxtrot'
p3679
sS'112805'
p3680
S'Foxtrot'
p3681
sS'115117'
p3682
S'Quickstep'
p3683
sS'115020'
p3684
S'Tango'
p3685
sS'112808'
p3686
S'Foxtrot'
p3687
sS'112809'
p3688
S'Foxtrot'
p3689
sS'104918'
p3690
S'Quickstep'
p3691
sS'115319'
p3692
S'Tango'
p3693
sS'111710'
p3694
S'Rumba'
p3695
sS'101905'
p3696
S'Tango'
p3697
sS'110637'
p3698
S'Quickstep'
p3699
sS'115601'
p3700
S'Chacha'
p3701
sS'115603'
p3702
S'Chacha'
p3703
sS'115602'
p3704
S'Chacha'
p3705
sS'115605'
p3706
S'Chacha'
p3707
sS'115604'
p3708
S'Chacha'
p3709
sS'115607'
p3710
S'Chacha'
p3711
sS'115606'
p3712
S'Chacha'
p3713
sS'115609'
p3714
S'Chacha'
p3715
sS'115608'
p3716
S'Chacha'
p3717
sS'110102'
p3718
S'Waltz'
p3719
sS'115318'
p3720
S'Tango'
p3721
sS'111717'
p3722
S'Samba'
p3723
sS'111008'
p3724
S'Waltz'
p3725
sS'109401'
p3726
S'Waltz'
p3727
sS'110636'
p3728
S'Quickstep'
p3729
sS'115429'
p3730
S'Tango'
p3731
sS'115428'
p3732
S'Tango'
p3733
sS'112713'
p3734
S'Viennesewaltz'
p3735
sS'115421'
p3736
S'Tango'
p3737
sS'115420'
p3738
S'Tango'
p3739
sS'115423'
p3740
S'Tango'
p3741
sS'115422'
p3742
S'Tango'
p3743
sS'109420'
p3744
S'Quickstep'
p3745
sS'109421'
p3746
S'Quickstep'
p3747
sS'115427'
p3748
S'Tango'
p3749
sS'115426'
p3750
S'Tango'
p3751
sS'108409'
p3752
S'Rumba'
p3753
sS'111003'
p3754
S'Waltz'
p3755
sS'109406'
p3756
S'Waltz'
p3757
sS'108809'
p3758
S'Samba'
p3759
sS'115727'
p3760
S'Waltz'
p3761
sS'108401'
p3762
S'Samba'
p3763
sS'108403'
p3764
S'Samba'
p3765
sS'108402'
p3766
S'Samba'
p3767
sS'108405'
p3768
S'Samba'
p3769
sS'108404'
p3770
S'Samba'
p3771
sS'108407'
p3772
S'Samba'
p3773
sS'108406'
p3774
S'Samba'
p3775
sS'115722'
p3776
S'Waltz'
p3777
sS'115723'
p3778
S'Waltz'
p3779
sS'109407'
p3780
S'Tango'
p3781
sS'112020'
p3782
S'Quickstep'
p3783
sS'111005'
p3784
S'Waltz'
p3785
sS'112022'
p3786
S'Quickstep'
p3787
sS'115735'
p3788
S'Tango'
p3789
sS'115734'
p3790
S'Tango'
p3791
sS'115737'
p3792
S'Tango'
p3793
sS'111004'
p3794
S'Waltz'
p3795
sS'115731'
p3796
S'Viennesewaltz'
p3797
sS'115730'
p3798
S'Waltz'
p3799
sS'115733'
p3800
S'Viennesewaltz'
p3801
sS'115732'
p3802
S'Viennesewaltz'
p3803
sS'118512'
p3804
S'Rumba'
p3805
sS'118513'
p3806
S'Rumba'
p3807
sS'118510'
p3808
S'Chacha'
p3809
sS'118511'
p3810
S'Chacha'
p3811
sS'118516'
p3812
S'Rumba'
p3813
sS'118517'
p3814
S'Jive'
p3815
sS'111618'
p3816
S'Jive'
p3817
sS'111619'
p3818
S'Jive'
p3819
sS'111616'
p3820
S'Rumba'
p3821
sS'111617'
p3822
S'Rumba'
p3823
sS'118518'
p3824
S'Jive'
p3825
sS'111615'
p3826
S'Rumba'
p3827
sS'111612'
p3828
S'Chacha'
p3829
sS'111613'
p3830
S'Rumba'
p3831
sS'111610'
p3832
S'Chacha'
p3833
sS'111611'
p3834
S'Chacha'
p3835
sS'108535'
p3836
S'Jive'
p3837
sS'108534'
p3838
S'Jive'
p3839
sS'108537'
p3840
S'Chacha'
p3841
sS'108536'
p3842
S'Jive'
p3843
sS'108530'
p3844
S'Rumba'
p3845
sS'108533'
p3846
S'Jive'
p3847
sS'108532'
p3848
S'Jive'
p3849
sS'117403'
p3850
S'Samba'
p3851
sS'115112'
p3852
S'Quickstep'
p3853
sS'111924'
p3854
S'Rumba'
p3855
sS'111925'
p3856
S'Rumba'
p3857
sS'111926'
p3858
S'Rumba'
p3859
sS'111927'
p3860
S'Rumba'
p3861
sS'111920'
p3862
S'Chacha'
p3863
sS'111921'
p3864
S'Rumba'
p3865
sS'111922'
p3866
S'Rumba'
p3867
sS'111923'
p3868
S'Rumba'
p3869
sS'106520'
p3870
S'Quickstep'
p3871
sS'117405'
p3872
S'Samba'
p3873
sS'111928'
p3874
S'Rumba'
p3875
sS'111929'
p3876
S'Rumba'
p3877
sS'109405'
p3878
S'Waltz'
p3879
sS'117404'
p3880
S'Samba'
p3881
sS'115137'
p3882
S'Tango'
p3883
sS'111103'
p3884
S'Waltz'
p3885
sS'115135'
p3886
S'Tango'
p3887
sS'115134'
p3888
S'Tango'
p3889
sS'111106'
p3890
S'Tango'
p3891
sS'117407'
p3892
S'Samba'
p3893
sS'115131'
p3894
S'Viennesewaltz'
p3895
sS'115130'
p3896
S'Waltz'
p3897
sS'111108'
p3898
S'Tango'
p3899
sS'111109'
p3900
S'Viennesewaltz'
p3901
sS'111210'
p3902
S'Samba'
p3903
sS'115139'
p3904
S'Tango'
p3905
sS'115138'
p3906
S'Tango'
p3907
sS'117609'
p3908
S'Chacha'
p3909
sS'117608'
p3910
S'Chacha'
p3911
sS'117603'
p3912
S'Samba'
p3913
sS'111216'
p3914
S'Chacha'
p3915
sS'117601'
p3916
S'Samba'
p3917
sS'117607'
p3918
S'Samba'
p3919
sS'117606'
p3920
S'Samba'
p3921
sS'117605'
p3922
S'Samba'
p3923
sS'111217'
p3924
S'Chacha'
p3925
sS'109204'
p3926
S'Foxtrot'
p3927
sS'109205'
p3928
S'Foxtrot'
p3929
sS'109206'
p3930
S'Foxtrot'
p3931
sS'109207'
p3932
S'Foxtrot'
p3933
sS'109201'
p3934
S'Foxtrot'
p3935
sS'109202'
p3936
S'Foxtrot'
p3937
sS'118429'
p3938
S'Rumba'
p3939
sS'111722'
p3940
S'Jive'
p3941
sS'118427'
p3942
S'Rumba'
p3943
sS'111720'
p3944
S'Rumba'
p3945
sS'117340'
p3946
S'Viennesewaltz'
p3947
sS'109208'
p3948
S'Foxtrot'
p3949
sS'109209'
p3950
S'Foxtrot'
p3951
sS'118420'
p3952
S'Chacha'
p3953
sS'118421'
p3954
S'Rumba'
p3955
sS'108526'
p3956
S'Rumba'
p3957
sS'113136'
p3958
S'Quickstep'
p3959
sS'107329'
p3960
S'Foxtrot'
p3961
sS'107328'
p3962
S'Foxtrot'
p3963
sS'108338'
p3964
S'Tango'
p3965
sS'108337'
p3966
S'Tango'
p3967
sS'108336'
p3968
S'Tango'
p3969
sS'108335'
p3970
S'Tango'
p3971
sS'108334'
p3972
S'Tango'
p3973
sS'107321'
p3974
S'Tango'
p3975
sS'108332'
p3976
S'Viennesewaltz'
p3977
sS'108331'
p3978
S'Viennesewaltz'
p3979
sS'107322'
p3980
S'Tango'
p3981
sS'115218'
p3982
S'Samba'
p3983
sS'108522'
p3984
S'Rumba'
p3985
sS'108523'
p3986
S'Rumba'
p3987
sS'113823'
p3988
S'Rumba'
p3989
sS'110419'
p3990
S'Quickstep'
p3991
sS'110418'
p3992
S'Quickstep'
p3993
sS'110417'
p3994
S'Quickstep'
p3995
sS'110416'
p3996
S'Quickstep'
p3997
sS'110415'
p3998
S'Quickstep'
p3999
sS'110414'
p4000
S'Quickstep'
p4001
sS'110413'
p4002
S'Quickstep'
p4003
sS'110412'
p4004
S'Quickstep'
p4005
sS'110411'
p4006
S'Quickstep'
p4007
sS'110410'
p4008
S'Foxtrot'
p4009
sS'111436'
p4010
S'Quickstep'
p4011
sS'111437'
p4012
S'Quickstep'
p4013
sS'111434'
p4014
S'Quickstep'
p4015
sS'111435'
p4016
S'Quickstep'
p4017
sS'111432'
p4018
S'Quickstep'
p4019
sS'111433'
p4020
S'Quickstep'
p4021
sS'111430'
p4022
S'Foxtrot'
p4023
sS'111431'
p4024
S'Quickstep'
p4025
sS'112925'
p4026
S'Rumba'
p4027
sS'111438'
p4028
S'Quickstep'
p4029
sS'113826'
p4030
S'Rumba'
p4031
sS'109110'
p4032
S'Viennesewaltz'
p4033
sS'109111'
p4034
S'Viennesewaltz'
p4035
sS'118738'
p4036
S'Tango'
p4037
sS'109113'
p4038
S'Viennesewaltz'
p4039
sS'104218'
p4040
S'Quickstep'
p4041
sS'104219'
p4042
S'Quickstep'
p4043
sS'109116'
p4044
S'Viennesewaltz'
p4045
sS'109117'
p4046
S'Viennesewaltz'
p4047
sS'118732'
p4048
S'Tango'
p4049
sS'109119'
p4050
S'Viennesewaltz'
p4051
sS'118730'
p4052
S'Waltz'
p4053
sS'104217'
p4054
S'Quickstep'
p4055
sS'118736'
p4056
S'Tango'
p4057
sS'118737'
p4058
S'Tango'
p4059
sS'118734'
p4060
S'Tango'
p4061
sS'104213'
p4062
S'Foxtrot'
p4063
sS'108629'
p4064
S'Rumba'
p4065
sS'110521'
p4066
S'Waltz'
p4067
sS'110520'
p4068
S'Quickstep'
p4069
sS'108528'
p4070
S'Rumba'
p4071
sS'108628'
p4072
S'Rumba'
p4073
sS'118720'
p4074
S'Quickstep'
p4075
sS'108529'
p4076
S'Rumba'
p4077
sS'112512'
p4078
S'Samba'
p4079
sS'117805'
p4080
S'Samba'
p4081
sS'117804'
p4082
S'Samba'
p4083
sS'117807'
p4084
S'Samba'
p4085
sS'117806'
p4086
S'Samba'
p4087
sS'117801'
p4088
S'Samba'
p4089
sS'117803'
p4090
S'Samba'
p4091
sS'117802'
p4092
S'Samba'
p4093
sS'116820'
p4094
S'Foxtrot'
p4095
sS'116821'
p4096
S'Foxtrot'
p4097
sS'116822'
p4098
S'Quickstep'
p4099
sS'116823'
p4100
S'Quickstep'
p4101
sS'117809'
p4102
S'Samba'
p4103
sS'117808'
p4104
S'Samba'
p4105
sS'104805'
p4106
S'Waltz'
p4107
sS'117513'
p4108
S'Tango'
p4109
sS'112517'
p4110
S'Samba'
p4111
sS'115316'
p4112
S'Tango'
p4113
sS'112531'
p4114
S'Rumba'
p4115
sS'104804'
p4116
S'Waltz'
p4117
sS'107813'
p4118
S'Quickstep'
p4119
sS'107812'
p4120
S'Quickstep'
p4121
sS'107811'
p4122
S'Quickstep'
p4123
sS'107810'
p4124
S'Waltz'
p4125
sS'107817'
p4126
S'Quickstep'
p4127
sS'107816'
p4128
S'Quickstep'
p4129
sS'107815'
p4130
S'Quickstep'
p4131
sS'107814'
p4132
S'Quickstep'
p4133
sS'115021'
p4134
S'Tango'
p4135
sS'107818'
p4136
S'Quickstep'
p4137
sS'107736'
p4138
S'Viennesewaltz'
p4139
sS'106212'
p4140
S'Viennesewaltz'
p4141
sS'106213'
p4142
S'Viennesewaltz'
p4143
sS'106210'
p4144
S'Viennesewaltz'
p4145
sS'106211'
p4146
S'Viennesewaltz'
p4147
sS'106216'
p4148
S'Foxtrot'
p4149
sS'106217'
p4150
S'Foxtrot'
p4151
sS'106214'
p4152
S'Foxtrot'
p4153
sS'106215'
p4154
S'Foxtrot'
p4155
sS'106218'
p4156
S'Quickstep'
p4157
sS'106219'
p4158
S'Quickstep'
p4159
sS'110705'
p4160
S'Samba'
p4161
sS'118343'
p4162
S'Quickstep'
p4163
sS'118342'
p4164
S'Quickstep'
p4165
sS'118341'
p4166
S'Quickstep'
p4167
sS'118340'
p4168
S'Quickstep'
p4169
sS'114606'
p4170
S'Samba'
p4171
sS'114607'
p4172
S'Samba'
p4173
sS'114604'
p4174
S'Samba'
p4175
sS'114605'
p4176
S'Samba'
p4177
sS'114602'
p4178
S'Samba'
p4179
sS'114603'
p4180
S'Samba'
p4181
sS'114601'
p4182
S'Samba'
p4183
sS'114608'
p4184
S'Samba'
p4185
sS'114609'
p4186
S'Samba'
p4187
sS'113032'
p4188
S'Quickstep'
p4189
sS'116006'
p4190
S'Waltz'
p4191
sS'116007'
p4192
S'Tango'
p4193
sS'104809'
p4194
S'Viennesewaltz'
p4195
sS'116004'
p4196
S'Waltz'
p4197
sS'116005'
p4198
S'Waltz'
p4199
sS'116002'
p4200
S'Waltz'
p4201
sS'116003'
p4202
S'Waltz'
p4203
sS'117535'
p4204
S'Quickstep'
p4205
sS'118030'
p4206
S'Rumba'
p4207
sS'116001'
p4208
S'Waltz'
p4209
sS'117537'
p4210
S'Viennesewaltz'
p4211
sS'113416'
p4212
S'Rumba'
p4213
sS'117536'
p4214
S'Viennesewaltz'
p4215
sS'117531'
p4216
S'Quickstep'
p4217
sS'117530'
p4218
S'Quickstep'
p4219
sS'117533'
p4220
S'Quickstep'
p4221
sS'113708'
p4222
S'Foxtrot'
p4223
sS'113709'
p4224
S'Foxtrot'
p4225
sS'113706'
p4226
S'Foxtrot'
p4227
sS'113707'
p4228
S'Foxtrot'
p4229
sS'113704'
p4230
S'Foxtrot'
p4231
sS'113705'
p4232
S'Foxtrot'
p4233
sS'113702'
p4234
S'Foxtrot'
p4235
sS'113703'
p4236
S'Foxtrot'
p4237
sS'113701'
p4238
S'Foxtrot'
p4239
sS'116008'
p4240
S'Tango'
p4241
sS'110109'
p4242
S'Waltz'
p4243
sS'111714'
p4244
S'Jive'
p4245
sS'116009'
p4246
S'Tango'
p4247
sS'111323'
p4248
S'Waltz'
p4249
sS'112528'
p4250
S'Rumba'
p4251
sS'108630'
p4252
S'Rumba'
p4253
sS'104214'
p4254
S'Foxtrot'
p4255
sS'109203'
p4256
S'Foxtrot'
p4257
sS'112608'
p4258
S'Waltz'
p4259
sS'112609'
p4260
S'Waltz'
p4261
sS'112811'
p4262
S'Foxtrot'
p4263
sS'112810'
p4264
S'Foxtrot'
p4265
sS'112813'
p4266
S'Quickstep'
p4267
sS'112812'
p4268
S'Quickstep'
p4269
sS'112815'
p4270
S'Quickstep'
p4271
sS'112814'
p4272
S'Quickstep'
p4273
sS'112817'
p4274
S'Quickstep'
p4275
sS'112816'
p4276
S'Quickstep'
p4277
sS'112819'
p4278
S'Quickstep'
p4279
sS'112818'
p4280
S'Quickstep'
p4281
sS'113818'
p4282
S'Samba'
p4283
sS'113819'
p4284
S'Samba'
p4285
sS'104215'
p4286
S'Foxtrot'
p4287
sS'113812'
p4288
S'Samba'
p4289
sS'113813'
p4290
S'Samba'
p4291
sS'113810'
p4292
S'Chacha'
p4293
sS'113811'
p4294
S'Samba'
p4295
sS'113816'
p4296
S'Samba'
p4297
sS'113817'
p4298
S'Samba'
p4299
sS'113814'
p4300
S'Samba'
p4301
sS'113815'
p4302
S'Samba'
p4303
sS'115638'
p4304
S'Jive'
p4305
sS'115639'
p4306
S'Jive'
p4307
sS'115634'
p4308
S'Jive'
p4309
sS'115635'
p4310
S'Jive'
p4311
sS'115636'
p4312
S'Jive'
p4313
sS'115637'
p4314
S'Jive'
p4315
sS'115630'
p4316
S'Rumba'
p4317
sS'115633'
p4318
S'Jive'
p4319
sS'104216'
p4320
S'Quickstep'
p4321
sS'112602'
p4322
S'Waltz'
p4323
sS'112603'
p4324
S'Waltz'
p4325
sS'108434'
p4326
S'Rumba'
p4327
sS'108435'
p4328
S'Jive'
p4329
sS'108436'
p4330
S'Jive'
p4331
sS'108437'
p4332
S'Jive'
p4333
sS'108430'
p4334
S'Rumba'
p4335
sS'108431'
p4336
S'Rumba'
p4337
sS'108432'
p4338
S'Rumba'
p4339
sS'108433'
p4340
S'Rumba'
p4341
sS'109607'
p4342
S'Tango'
p4343
sS'108438'
p4344
S'Jive'
p4345
sS'108439'
p4346
S'Jive'
p4347
sS'112721'
p4348
S'Quickstep'
p4349
sS'112720'
p4350
S'Quickstep'
p4351
sS'113926'
p4352
S'Rumba'
p4353
sS'113927'
p4354
S'Rumba'
p4355
sS'113924'
p4356
S'Rumba'
p4357
sS'113925'
p4358
S'Rumba'
p4359
sS'113922'
p4360
S'Chacha'
p4361
sS'113923'
p4362
S'Rumba'
p4363
sS'113920'
p4364
S'Chacha'
p4365
sS'113921'
p4366
S'Chacha'
p4367
sS'113928'
p4368
S'Rumba'
p4369
sS'113929'
p4370
S'Rumba'
p4371
sS'115738'
p4372
S'Tango'
p4373
sS'115708'
p4374
S'Foxtrot'
p4375
sS'115709'
p4376
S'Foxtrot'
p4377
sS'111422'
p4378
S'Viennesewaltz'
p4379
sS'115701'
p4380
S'Foxtrot'
p4381
sS'115702'
p4382
S'Foxtrot'
p4383
sS'115703'
p4384
S'Foxtrot'
p4385
sS'115704'
p4386
S'Foxtrot'
p4387
sS'115705'
p4388
S'Foxtrot'
p4389
sS'115706'
p4390
S'Foxtrot'
p4391
sS'115707'
p4392
S'Foxtrot'
p4393
sS'118501'
p4394
S'Samba'
p4395
sS'118503'
p4396
S'Samba'
p4397
sS'118502'
p4398
S'Samba'
p4399
sS'111609'
p4400
S'Chacha'
p4401
sS'111608'
p4402
S'Chacha'
p4403
sS'118507'
p4404
S'Chacha'
p4405
sS'109320'
p4406
S'Quickstep'
p4407
sS'118509'
p4408
S'Chacha'
p4409
sS'118508'
p4410
S'Chacha'
p4411
sS'111607'
p4412
S'Chacha'
p4413
sS'111606'
p4414
S'Samba'
p4415
sS'111601'
p4416
S'Samba'
p4417
sS'104211'
p4418
S'Viennesewaltz'
p4419
sS'111603'
p4420
S'Samba'
p4421
sS'111602'
p4422
S'Samba'
p4423
sS'108501'
p4424
S'Samba'
p4425
sS'108502'
p4426
S'Samba'
p4427
sS'108503'
p4428
S'Samba'
p4429
sS'107008'
p4430
S'Chacha'
p4431
sS'107009'
p4432
S'Rumba'
p4433
sS'108506'
p4434
S'Samba'
p4435
sS'108507'
p4436
S'Samba'
p4437
sS'107004'
p4438
S'Samba'
p4439
sS'108509'
p4440
S'Samba'
p4441
sS'107006'
p4442
S'Chacha'
p4443
sS'107007'
p4444
S'Chacha'
p4445
sS'107001'
p4446
S'Samba'
p4447
sS'107002'
p4448
S'Samba'
p4449
sS'107003'
p4450
S'Samba'
p4451
sS'111930'
p4452
S'Rumba'
p4453
sS'111937'
p4454
S'Jive'
p4455
sS'111936'
p4456
S'Jive'
p4457
sS'111935'
p4458
S'Jive'
p4459
sS'111934'
p4460
S'Jive'
p4461
sS'111939'
p4462
S'Jive'
p4463
sS'107339'
p4464
S'Viennesewaltz'
p4465
sS'115414'
p4466
S'Tango'
p4467
sS'115415'
p4468
S'Tango'
p4469
sS'111113'
p4470
S'Foxtrot'
p4471
sS'115417'
p4472
S'Tango'
p4473
sS'115410'
p4474
S'Tango'
p4475
sS'115411'
p4476
S'Tango'
p4477
sS'111117'
p4478
S'Quickstep'
p4479
sS'115413'
p4480
S'Tango'
p4481
sS'111119'
p4482
S'Quickstep'
p4483
sS'111118'
p4484
S'Quickstep'
p4485
sS'115418'
p4486
S'Tango'
p4487
sS'115419'
p4488
S'Tango'
p4489
sS'107005'
p4490
S'Chacha'
p4491
sS'105801'
p4492
S'Waltz'
p4493
sS'117940'
p4494
S'Quickstep'
p4495
sS'117941'
p4496
S'Quickstep'
p4497
sS'117942'
p4498
S'Quickstep'
p4499
sS'117943'
p4500
S'Quickstep'
p4501
sS'117944'
p4502
S'Quickstep'
p4503
sS'110640'
p4504
S'Quickstep'
p4505
sS'110641'
p4506
S'Quickstep'
p4507
sS'109213'
p4508
S'Foxtrot'
p4509
sS'109212'
p4510
S'Foxtrot'
p4511
sS'109211'
p4512
S'Foxtrot'
p4513
sS'109210'
p4514
S'Foxtrot'
p4515
sS'118439'
p4516
S'Jive'
p4517
sS'118438'
p4518
S'Jive'
p4519
sS'109215'
p4520
S'Foxtrot'
p4521
sS'109214'
p4522
S'Foxtrot'
p4523
sS'118435'
p4524
S'Jive'
p4525
sS'118434'
p4526
S'Jive'
p4527
sS'118437'
p4528
S'Jive'
p4529
sS'109218'
p4530
S'Foxtrot'
p4531
sS'118433'
p4532
S'Jive'
p4533
sS'118432'
p4534
S'Jive'
p4535
sS'107318'
p4536
S'Tango'
p4537
sS'107319'
p4538
S'Tango'
p4539
sS'107310'
p4540
S'Waltz'
p4541
sS'107311'
p4542
S'Waltz'
p4543
sS'107312'
p4544
S'Waltz'
p4545
sS'107313'
p4546
S'Tango'
p4547
sS'107314'
p4548
S'Tango'
p4549
sS'107315'
p4550
S'Tango'
p4551
sS'107316'
p4552
S'Tango'
p4553
sS'107317'
p4554
S'Tango'
p4555
sS'110732'
p4556
S'Jive'
p4557
sS'110733'
p4558
S'Jive'
p4559
sS'110731'
p4560
S'Jive'
p4561
sS'110736'
p4562
S'Jive'
p4563
sS'110737'
p4564
S'Jive'
p4565
sS'110734'
p4566
S'Jive'
p4567
sS'110735'
p4568
S'Jive'
p4569
sS'110738'
p4570
S'Jive'
p4571
sS'110739'
p4572
S'Jive'
p4573
sS'107927'
p4574
S'Waltz'
p4575
sS'110616'
p4576
S'Tango'
p4577
sS'111425'
p4578
S'Foxtrot'
p4579
sS'111424'
p4580
S'Foxtrot'
p4581
sS'111427'
p4582
S'Foxtrot'
p4583
sS'111426'
p4584
S'Foxtrot'
p4585
sS'111421'
p4586
S'Viennesewaltz'
p4587
sS'111420'
p4588
S'Viennesewaltz'
p4589
sS'111423'
p4590
S'Viennesewaltz'
p4591
sS'110618'
p4592
S'Viennesewaltz'
p4593
sS'111429'
p4594
S'Foxtrot'
p4595
sS'111428'
p4596
S'Foxtrot'
p4597
sS'118729'
p4598
S'Waltz'
p4599
sS'118728'
p4600
S'Waltz'
p4601
sS'118026'
p4602
S'Rumba'
p4603
sS'104208'
p4604
S'Tango'
p4605
sS'107926'
p4606
S'Waltz'
p4607
sS'109109'
p4608
S'Viennesewaltz'
p4609
sS'109108'
p4610
S'Viennesewaltz'
p4611
sS'109107'
p4612
S'Viennesewaltz'
p4613
sS'104202'
p4614
S'Waltz'
p4615
sS'109105'
p4616
S'Viennesewaltz'
p4617
sS'109104'
p4618
S'Viennesewaltz'
p4619
sS'104207'
p4620
S'Tango'
p4621
sS'104206'
p4622
S'Tango'
p4623
sS'109101'
p4624
S'Viennesewaltz'
p4625
sS'104204'
p4626
S'Waltz'
p4627
sS'118027'
p4628
S'Rumba'
p4629
sS'117832'
p4630
S'Jive'
p4631
sS'117833'
p4632
S'Jive'
p4633
sS'117834'
p4634
S'Jive'
p4635
sS'117835'
p4636
S'Jive'
p4637
sS'117836'
p4638
S'Jive'
p4639
sS'117837'
p4640
S'Jive'
p4641
sS'117838'
p4642
S'Jive'
p4643
sS'117839'
p4644
S'Jive'
p4645
sS'113304'
p4646
S'Waltz'
p4647
sS'117018'
p4648
S'Jive'
p4649
sS'117019'
p4650
S'Jive'
p4651
sS'117016'
p4652
S'Jive'
p4653
sS'117017'
p4654
S'Jive'
p4655
sS'117014'
p4656
S'Jive'
p4657
sS'117015'
p4658
S'Jive'
p4659
sS'117012'
p4660
S'Jive'
p4661
sS'117013'
p4662
S'Jive'
p4663
sS'117010'
p4664
S'Jive'
p4665
sS'117011'
p4666
S'Jive'
p4667
sS'104811'
p4668
S'Viennesewaltz'
p4669
sS'107924'
p4670
S'Waltz'
p4671
sS'110819'
p4672
S'Rumba'
p4673
sS'118025'
p4674
S'Rumba'
p4675
sS'107923'
p4676
S'Waltz'
p4677
sS'106201'
p4678
S'Waltz'
p4679
sS'106203'
p4680
S'Waltz'
p4681
sS'106202'
p4682
S'Waltz'
p4683
sS'106205'
p4684
S'Waltz'
p4685
sS'106204'
p4686
S'Waltz'
p4687
sS'106207'
p4688
S'Tango'
p4689
sS'106206'
p4690
S'Tango'
p4691
sS'106209'
p4692
S'Tango'
p4693
sS'106208'
p4694
S'Tango'
p4695
sS'111110'
p4696
S'Viennesewaltz'
p4697
sS'110818'
p4698
S'Rumba'
p4699
sS'107922'
p4700
S'Waltz'
p4701
sS'114611'
p4702
S'Samba'
p4703
sS'114610'
p4704
S'Samba'
p4705
sS'114612'
p4706
S'Samba'
p4707
sS'117122'
p4708
S'Jive'
p4709
sS'117123'
p4710
S'Jive'
p4711
sS'117120'
p4712
S'Jive'
p4713
sS'117121'
p4714
S'Jive'
p4715
sS'117124'
p4716
S'Jive'
p4717
sS'117337'
p4718
S'Tango'
p4719
sS'111523'
p4720
S'Rumba'
p4721
sS'117336'
p4722
S'Tango'
p4723
sS'117335'
p4724
S'Tango'
p4725
sS'117334'
p4726
S'Tango'
p4727
sS'115303'
p4728
S'Waltz'
p4729
sS'118321'
p4730
S'Viennesewaltz'
p4731
sS'117332'
p4732
S'Tango'
p4733
sS'117331'
p4734
S'Tango'
p4735
sS'118828'
p4736
S'Rumba'
p4737
sS'113017'
p4738
S'Viennesewaltz'
p4739
sS'100603'
p4740
S'Waltz'
p4741
sS'102611'
p4742
S'Viennesewaltz'
p4743
sS'113719'
p4744
S'Quickstep'
p4745
sS'113718'
p4746
S'Quickstep'
p4747
sS'113412'
p4748
S'Rumba'
p4749
sS'100602'
p4750
S'Waltz'
p4751
sS'113715'
p4752
S'Quickstep'
p4753
sS'113714'
p4754
S'Quickstep'
p4755
sS'113717'
p4756
S'Quickstep'
p4757
sS'113716'
p4758
S'Quickstep'
p4759
sS'113711'
p4760
S'Quickstep'
p4761
sS'113710'
p4762
S'Foxtrot'
p4763
sS'113713'
p4764
S'Quickstep'
p4765
sS'113712'
p4766
S'Quickstep'
p4767
sS'115821'
p4768
S'Viennesewaltz'
p4769
sS'115820'
p4770
S'Viennesewaltz'
p4771
sS'102616'
p4772
S'Foxtrot'
p4773
sS'100605'
p4774
S'Tango'
p4775
sS'100604'
p4776
S'Waltz'
p4777
sS'104917'
p4778
S'Quickstep'
p4779
sS'102617'
p4780
S'Foxtrot'
p4781
sS'110619'
p4782
S'Viennesewaltz'
p4783
sS'112828'
p4784
S'Waltz'
p4785
sS'112829'
p4786
S'Waltz'
p4787
sS'112538'
p4788
S'Jive'
p4789
sS'112824'
p4790
S'Waltz'
p4791
sS'112537'
p4792
S'Jive'
p4793
sS'112826'
p4794
S'Waltz'
p4795
sS'112827'
p4796
S'Waltz'
p4797
sS'112820'
p4798
S'Quickstep'
p4799
sS'112821'
p4800
S'Quickstep'
p4801
sS'112530'
p4802
S'Rumba'
p4803
sS'112823'
p4804
S'Waltz'
p4805
sS'113809'
p4806
S'Chacha'
p4807
sS'113808'
p4808
S'Chacha'
p4809
sS'113801'
p4810
S'Chacha'
p4811
sS'113803'
p4812
S'Chacha'
p4813
sS'113802'
p4814
S'Chacha'
p4815
sS'113805'
p4816
S'Chacha'
p4817
sS'113804'
p4818
S'Chacha'
p4819
sS'113807'
p4820
S'Chacha'
p4821
sS'113806'
p4822
S'Chacha'
p4823
sS'115629'
p4824
S'Rumba'
p4825
sS'115628'
p4826
S'Rumba'
p4827
sS'115623'
p4828
S'Rumba'
p4829
sS'115622'
p4830
S'Rumba'
p4831
sS'115621'
p4832
S'Rumba'
p4833
sS'115620'
p4834
S'Samba'
p4835
sS'115627'
p4836
S'Rumba'
p4837
sS'115626'
p4838
S'Rumba'
p4839
sS'115625'
p4840
S'Rumba'
p4841
sS'115624'
p4842
S'Rumba'
p4843
sS'112622'
p4844
S'Tango'
p4845
sS'112623'
p4846
S'Foxtrot'
p4847
sS'112620'
p4848
S'Tango'
p4849
sS'112621'
p4850
S'Tango'
p4851
sS'112626'
p4852
S'Foxtrot'
p4853
sS'112627'
p4854
S'Foxtrot'
p4855
sS'112624'
p4856
S'Foxtrot'
p4857
sS'112625'
p4858
S'Foxtrot'
p4859
sS'112628'
p4860
S'Foxtrot'
p4861
sS'112629'
p4862
S'Foxtrot'
p4863
sS'109918'
p4864
S'Quickstep'
p4865
sS'107105'
p4866
S'Waltz'
p4867
sS'108421'
p4868
S'Chacha'
p4869
sS'108420'
p4870
S'Chacha'
p4871
sS'108427'
p4872
S'Chacha'
p4873
sS'108426'
p4874
S'Chacha'
p4875
sS'108425'
p4876
S'Chacha'
p4877
sS'107104'
p4878
S'Waltz'
p4879
sS'109910'
p4880
S'Viennesewaltz'
p4881
sS'109911'
p4882
S'Viennesewaltz'
p4883
sS'109912'
p4884
S'Foxtrot'
p4885
sS'108428'
p4886
S'Chacha'
p4887
sS'109914'
p4888
S'Foxtrot'
p4889
sS'107107'
p4890
S'Tango'
p4891
sS'109916'
p4892
S'Quickstep'
p4893
sS'109917'
p4894
S'Quickstep'
p4895
sS'113937'
p4896
S'Jive'
p4897
sS'114911'
p4898
S'Viennesewaltz'
p4899
sS'113931'
p4900
S'Rumba'
p4901
sS'113930'
p4902
S'Rumba'
p4903
sS'113933'
p4904
S'Rumba'
p4905
sS'113932'
p4906
S'Rumba'
p4907
sS'111807'
p4908
S'Foxtrot'
p4909
sS'113939'
p4910
S'Jive'
p4911
sS'113938'
p4912
S'Jive'
p4913
sS'114917'
p4914
S'Foxtrot'
p4915
sS'115717'
p4916
S'Quickstep'
p4917
sS'115716'
p4918
S'Quickstep'
p4919
sS'115715'
p4920
S'Quickstep'
p4921
sS'115714'
p4922
S'Quickstep'
p4923
sS'115713'
p4924
S'Quickstep'
p4925
sS'107103'
p4926
S'Waltz'
p4927
sS'115711'
p4928
S'Quickstep'
p4929
sS'115710'
p4930
S'Foxtrot'
p4931
sS'107102'
p4932
S'Waltz'
p4933
sS'115719'
p4934
S'Quickstep'
p4935
sS'115718'
p4936
S'Quickstep'
p4937
sS'115140'
p4938
S'Tango'
p4939
sS'106815'
p4940
S'Rumba'
p4941
sS'111112'
p4942
S'Viennesewaltz'
p4943
sS'106816'
p4944
S'Rumba'
p4945
sS'114919'
p4946
S'Foxtrot'
p4947
sS'115226'
p4948
S'Rumba'
p4949
sS'117817'
p4950
S'Chacha'
p4951
sS'107928'
p4952
S'Waltz'
p4953
sS'111327'
p4954
S'Waltz'
p4955
sS'108519'
p4956
S'Chacha'
p4957
sS'108518'
p4958
S'Chacha'
p4959
sS'108517'
p4960
S'Chacha'
p4961
sS'108516'
p4962
S'Chacha'
p4963
sS'108515'
p4964
S'Chacha'
p4965
sS'108514'
p4966
S'Chacha'
p4967
sS'107017'
p4968
S'Jive'
p4969
sS'108512'
p4970
S'Chacha'
p4971
sS'107015'
p4972
S'Jive'
p4973
sS'107014'
p4974
S'Jive'
p4975
sS'117811'
p4976
S'Chacha'
p4977
sS'115403'
p4978
S'Tango'
p4979
sS'115402'
p4980
S'Tango'
p4981
sS'115401'
p4982
S'Tango'
p4983
sS'109404'
p4984
S'Waltz'
p4985
sS'115407'
p4986
S'Tango'
p4987
sS'115406'
p4988
S'Tango'
p4989
sS'115405'
p4990
S'Tango'
p4991
sS'115404'
p4992
S'Tango'
p4993
sS'115409'
p4994
S'Tango'
p4995
sS'115408'
p4996
S'Tango'
p4997
sS'111120'
p4998
S'Quickstep'
p4999
sS'111704'
p5000
S'Samba'
p5001
sS'116110'
p5002
S'Samba'
p5003
sS'111706'
p5004
S'Chacha'
p5005
sS'111707'
p5006
S'Chacha'
p5007
sS'111701'
p5008
S'Samba'
p5009
sS'111702'
p5010
S'Samba'
p5011
sS'116111'
p5012
S'Chacha'
p5013
sS'111708'
p5014
S'Chacha'
p5015
sS'112303'
p5016
S'Samba'
p5017
sS'116810'
p5018
S'Jive'
p5019
sS'118408'
p5020
S'Samba'
p5021
sS'107306'
p5022
S'Waltz'
p5023
sS'107305'
p5024
S'Waltz'
p5025
sS'112302'
p5026
S'Samba'
p5027
sS'107303'
p5028
S'Waltz'
p5029
sS'107302'
p5030
S'Waltz'
p5031
sS'107301'
p5032
S'Waltz'
p5033
sS'112305'
p5034
S'Samba'
p5035
sS'118402'
p5036
S'Samba'
p5037
sS'117819'
p5038
S'Chacha'
p5039
sS'118404'
p5040
S'Samba'
p5041
sS'118405'
p5042
S'Samba'
p5043
sS'118406'
p5044
S'Samba'
p5045
sS'118407'
p5046
S'Samba'
p5047
sS'116116'
p5048
S'Chacha'
p5049
sS'108009'
p5050
S'Quickstep'
p5051
sS'116117'
p5052
S'Chacha'
p5053
sS'110721'
p5054
S'Rumba'
p5055
sS'116118'
p5056
S'Chacha'
p5057
sS'110723'
p5058
S'Rumba'
p5059
sS'110722'
p5060
S'Rumba'
p5061
sS'110725'
p5062
S'Rumba'
p5063
sS'110724'
p5064
S'Rumba'
p5065
sS'110727'
p5066
S'Rumba'
p5067
sS'112308'
p5068
S'Chacha'
p5069
sS'108134'
p5070
S'Viennesewaltz'
p5071
sS'110728'
p5072
S'Rumba'
p5073
sS'107838'
p5074
S'Tango'
p5075
sS'117713'
p5076
S'Tango'
p5077
sS'117712'
p5078
S'Tango'
p5079
sS'117715'
p5080
S'Tango'
p5081
sS'117714'
p5082
S'Tango'
p5083
sS'117717'
p5084
S'Tango'
p5085
sS'117716'
p5086
S'Tango'
p5087
sS'108008'
p5088
S'Quickstep'
p5089
sS'117718'
p5090
S'Tango'
p5091
sS'111115'
p5092
S'Foxtrot'
p5093
sS'118714'
p5094
S'Quickstep'
p5095
sS'118715'
p5096
S'Quickstep'
p5097
sS'114118'
p5098
S'Foxtrot'
p5099
sS'114119'
p5100
S'Foxtrot'
p5101
sS'118710'
p5102
S'Foxtrot'
p5103
sS'118711'
p5104
S'Quickstep'
p5105
sS'118712'
p5106
S'Quickstep'
p5107
sS'118713'
p5108
S'Quickstep'
p5109
sS'114112'
p5110
S'Viennesewaltz'
p5111
sS'111419'
p5112
S'Tango'
p5113
sS'114110'
p5114
S'Tango'
p5115
sS'114111'
p5116
S'Viennesewaltz'
p5117
sS'114116'
p5118
S'Foxtrot'
p5119
sS'118719'
p5120
S'Quickstep'
p5121
sS'114114'
p5122
S'Viennesewaltz'
p5123
sS'114115'
p5124
S'Foxtrot'
p5125
sS'107941'
p5126
S'Viennesewaltz'
p5127
sS'107940'
p5128
S'Viennesewaltz'
p5129
sS'116302'
p5130
S'Samba'
p5131
sS'110328'
p5132
S'Quickstep'
p5133
sS'116530'
p5134
S'Tango'
p5135
sS'116536'
p5136
S'Tango'
p5137
sS'117829'
p5138
S'Rumba'
p5139
sS'117828'
p5140
S'Rumba'
p5141
sS'117827'
p5142
S'Rumba'
p5143
sS'117826'
p5144
S'Rumba'
p5145
sS'117825'
p5146
S'Rumba'
p5147
sS'117824'
p5148
S'Rumba'
p5149
sS'117823'
p5150
S'Rumba'
p5151
sS'117822'
p5152
S'Rumba'
p5153
sS'117821'
p5154
S'Rumba'
p5155
sS'117820'
p5156
S'Chacha'
p5157
sS'117009'
p5158
S'Jive'
p5159
sS'117008'
p5160
S'Jive'
p5161
sS'114020'
p5162
S'Quickstep'
p5163
sS'114021'
p5164
S'Quickstep'
p5165
sS'117005'
p5166
S'Jive'
p5167
sS'117004'
p5168
S'Jive'
p5169
sS'117007'
p5170
S'Jive'
p5171
sS'117006'
p5172
S'Jive'
p5173
sS'117001'
p5174
S'Jive'
p5175
sS'117003'
p5176
S'Jive'
p5177
sS'117002'
p5178
S'Jive'
p5179
sS'109006'
p5180
S'Tango'
p5181
sS'104303'
p5182
S'Waltz'
p5183
sS'109004'
p5184
S'Tango'
p5185
sS'109005'
p5186
S'Tango'
p5187
sS'104306'
p5188
S'Tango'
p5189
sS'109003'
p5190
S'Tango'
p5191
sS'104304'
p5192
S'Tango'
p5193
sS'104305'
p5194
S'Tango'
p5195
sS'104308'
p5196
S'Viennesewaltz'
p5197
sS'104309'
p5198
S'Viennesewaltz'
p5199
sS'117918'
p5200
S'Tango'
p5201
sS'109008'
p5202
S'Tango'
p5203
sS'109009'
p5204
S'Tango'
p5205
sS'112304'
p5206
S'Samba'
p5207
sS'114704'
p5208
S'Waltz'
p5209
sS'111840'
p5210
S'Tango'
p5211
sS'107929'
p5212
S'Waltz'
p5213
sS'115724'
p5214
S'Waltz'
p5215
sS'111114'
p5216
S'Foxtrot'
p5217
sS'107805'
p5218
S'Waltz'
p5219
sS'113117'
p5220
S'Tango'
p5221
sS'101915'
p5222
S'Quickstep'
p5223
sS'112306'
p5224
S'Samba'
p5225
sS'108725'
p5226
S'Rumba'
p5227
sS'106017'
p5228
S'Jive'
p5229
sS'108006'
p5230
S'Quickstep'
p5231
sS'113116'
p5232
S'Tango'
p5233
sS'112532'
p5234
S'Rumba'
p5235
sS'107803'
p5236
S'Waltz'
p5237
sS'106308'
p5238
S'Chacha'
p5239
sS'106309'
p5240
S'Chacha'
p5241
sS'112822'
p5242
S'Waltz'
p5243
sS'106301'
p5244
S'Samba'
p5245
sS'106302'
p5246
S'Samba'
p5247
sS'106303'
p5248
S'Samba'
p5249
sS'106304'
p5250
S'Samba'
p5251
sS'106305'
p5252
S'Samba'
p5253
sS'106306'
p5254
S'Chacha'
p5255
sS'106307'
p5256
S'Chacha'
p5257
sS'113012'
p5258
S'Tango'
p5259
sS'113013'
p5260
S'Tango'
p5261
sS'113010'
p5262
S'Waltz'
p5263
sS'113011'
p5264
S'Tango'
p5265
sS'113016'
p5266
S'Viennesewaltz'
p5267
sS'117220'
p5268
S'Rumba'
p5269
sS'113014'
p5270
S'Tango'
p5271
sS'113015'
p5272
S'Tango'
p5273
sS'113018'
p5274
S'Viennesewaltz'
p5275
sS'113019'
p5276
S'Viennesewaltz'
p5277
sS'107809'
p5278
S'Waltz'
p5279
sS'116824'
p5280
S'Quickstep'
p5281
sS'115132'
p5282
S'Viennesewaltz'
p5283
sS'113728'
p5284
S'Waltz'
p5285
sS'113729'
p5286
S'Waltz'
p5287
sS'113720'
p5288
S'Quickstep'
p5289
sS'113721'
p5290
S'Quickstep'
p5291
sS'113722'
p5292
S'Waltz'
p5293
sS'113723'
p5294
S'Waltz'
p5295
sS'113724'
p5296
S'Waltz'
p5297
sS'113725'
p5298
S'Waltz'
p5299
sS'113726'
p5300
S'Waltz'
p5301
sS'113727'
p5302
S'Waltz'
p5303
sS'101910'
p5304
S'Foxtrot'
p5305
sS'106015'
p5306
S'Jive'
p5307
sS'106016'
p5308
S'Jive'
p5309
sS'101913'
p5310
S'Quickstep'
p5311
sS'101914'
p5312
S'Quickstep'
p5313
sS'106011'
p5314
S'Rumba'
p5315
sS'106012'
p5316
S'Rumba'
p5317
sS'113128'
p5318
S'Foxtrot'
p5319
sS'113129'
p5320
S'Foxtrot'
p5321
sS'113126'
p5322
S'Foxtrot'
p5323
sS'113127'
p5324
S'Foxtrot'
p5325
sS'113124'
p5326
S'Foxtrot'
p5327
sS'113125'
p5328
S'Foxtrot'
p5329
sS'113122'
p5330
S'Foxtrot'
p5331
sS'113123'
p5332
S'Foxtrot'
p5333
sS'113120'
p5334
S'Viennesewaltz'
p5335
sS'113121'
p5336
S'Viennesewaltz'
p5337
sS'113834'
p5338
S'Jive'
p5339
sS'108633'
p5340
S'Jive'
p5341
sS'113836'
p5342
S'Jive'
p5343
sS'108631'
p5344
S'Jive'
p5345
sS'113830'
p5346
S'Rumba'
p5347
sS'113831'
p5348
S'Rumba'
p5349
sS'108634'
p5350
S'Jive'
p5351
sS'108635'
p5352
S'Jive'
p5353
sS'112525'
p5354
S'Rumba'
p5355
sS'112524'
p5356
S'Rumba'
p5357
sS'112527'
p5358
S'Rumba'
p5359
sS'112526'
p5360
S'Rumba'
p5361
sS'113838'
p5362
S'Jive'
p5363
sS'112836'
p5364
S'Tango'
p5365
sS'112523'
p5366
S'Rumba'
p5367
sS'112522'
p5368
S'Rumba'
p5369
sS'110703'
p5370
S'Samba'
p5371
sS'111721'
p5372
S'Jive'
p5373
sS'110605'
p5374
S'Waltz'
p5375
sS'110702'
p5376
S'Samba'
p5377
sS'110701'
p5378
S'Samba'
p5379
sS'110707'
p5380
S'Samba'
p5381
sS'110706'
p5382
S'Samba'
p5383
sS'112631'
p5384
S'Foxtrot'
p5385
sS'112630'
p5386
S'Foxtrot'
p5387
sS'112633'
p5388
S'Quickstep'
p5389
sS'112632'
p5390
S'Foxtrot'
p5391
sS'112635'
p5392
S'Quickstep'
p5393
sS'112634'
p5394
S'Quickstep'
p5395
sS'112637'
p5396
S'Quickstep'
p5397
sS'112636'
p5398
S'Quickstep'
p5399
sS'112639'
p5400
S'Viennesewaltz'
p5401
sS'112638'
p5402
S'Quickstep'
p5403
sS'110704'
p5404
S'Samba'
p5405
sS'113901'
p5406
S'Samba'
p5407
sS'113902'
p5408
S'Samba'
p5409
sS'113903'
p5410
S'Samba'
p5411
sS'113904'
p5412
S'Samba'
p5413
sS'113905'
p5414
S'Samba'
p5415
sS'113906'
p5416
S'Samba'
p5417
sS'113907'
p5418
S'Samba'
p5419
sS'113908'
p5420
S'Samba'
p5421
sS'113909'
p5422
S'Samba'
p5423
sS'116702'
p5424
S'Samba'
p5425
sS'108920'
p5426
S'Waltz'
p5427
sS'113413'
p5428
S'Rumba'
p5429
sS'118816'
p5430
S'Chacha'
p5431
sS'113322'
p5432
S'Quickstep'
p5433
sS'118521'
p5434
S'Jive'
p5435
sS'118520'
p5436
S'Jive'
p5437
sS'111116'
p5438
S'Foxtrot'
p5439
sS'108128'
p5440
S'Waltz'
p5441
sS'106821'
p5442
S'Samba'
p5443
sS'106820'
p5444
S'Jive'
p5445
sS'109907'
p5446
S'Tango'
p5447
sS'109906'
p5448
S'Tango'
p5449
sS'109905'
p5450
S'Waltz'
p5451
sS'109904'
p5452
S'Waltz'
p5453
sS'109903'
p5454
S'Waltz'
p5455
sS'109902'
p5456
S'Waltz'
p5457
sS'109901'
p5458
S'Waltz'
p5459
sS'109909'
p5460
S'Viennesewaltz'
p5461
sS'109908'
p5462
S'Tango'
p5463
sS'118417'
p5464
S'Chacha'
p5465
sS'115217'
p5466
S'Samba'
p5467
sS'111711'
p5468
S'Rumba'
p5469
sS'115215'
p5470
S'Samba'
p5471
sS'118413'
p5472
S'Chacha'
p5473
sS'115213'
p5474
S'Samba'
p5475
sS'111715'
p5476
S'Jive'
p5477
sS'115211'
p5478
S'Samba'
p5479
sS'111719'
p5480
S'Chacha'
p5481
sS'111718'
p5482
S'Samba'
p5483
sS'118419'
p5484
S'Chacha'
p5485
sS'118418'
p5486
S'Chacha'
p5487
sS'118428'
p5488
S'Rumba'
p5489
sS'108424'
p5490
S'Chacha'
p5491
sS'110718'
p5492
S'Chacha'
p5493
sS'110719'
p5494
S'Chacha'
p5495
sS'111621'
p5496
S'Jive'
p5497
sS'111620'
p5498
S'Jive'
p5499
sS'110714'
p5500
S'Chacha'
p5501
sS'110715'
p5502
S'Chacha'
p5503
sS'110716'
p5504
S'Chacha'
p5505
sS'110717'
p5506
S'Chacha'
p5507
sS'110710'
p5508
S'Chacha'
p5509
sS'110711'
p5510
S'Chacha'
p5511
sS'110712'
p5512
S'Chacha'
p5513
sS'110713'
p5514
S'Chacha'
p5515
sS'106813'
p5516
S'Rumba'
p5517
sS'109913'
p5518
S'Foxtrot'
p5519
sS'117728'
p5520
S'Foxtrot'
p5521
sS'117729'
p5522
S'Foxtrot'
p5523
sS'117724'
p5524
S'Foxtrot'
p5525
sS'117725'
p5526
S'Foxtrot'
p5527
sS'117726'
p5528
S'Foxtrot'
p5529
sS'117727'
p5530
S'Foxtrot'
p5531
sS'117720'
p5532
S'Viennesewaltz'
p5533
sS'117721'
p5534
S'Viennesewaltz'
p5535
sS'117722'
p5536
S'Foxtrot'
p5537
sS'117723'
p5538
S'Foxtrot'
p5539
sS'118703'
p5540
S'Foxtrot'
p5541
sS'118702'
p5542
S'Foxtrot'
p5543
sS'118701'
p5544
S'Foxtrot'
p5545
sS'118707'
p5546
S'Foxtrot'
p5547
sS'118706'
p5548
S'Foxtrot'
p5549
sS'118705'
p5550
S'Foxtrot'
p5551
sS'118704'
p5552
S'Foxtrot'
p5553
sS'111407'
p5554
S'Waltz'
p5555
sS'111406'
p5556
S'Waltz'
p5557
sS'118709'
p5558
S'Foxtrot'
p5559
sS'118708'
p5560
S'Foxtrot'
p5561
sS'114105'
p5562
S'Waltz'
p5563
sS'111402'
p5564
S'Waltz'
p5565
sS'111401'
p5566
S'Waltz'
p5567
sS'114106'
p5568
S'Waltz'
p5569
sS'108038'
p5570
S'Tango'
p5571
sS'107208'
p5572
S'Rumba'
p5573
sS'108039'
p5574
S'Viennesewaltz'
p5575
sS'107206'
p5576
S'Chacha'
p5577
sS'107207'
p5578
S'Chacha'
p5579
sS'107204'
p5580
S'Chacha'
p5581
sS'107205'
p5582
S'Chacha'
p5583
sS'107202'
p5584
S'Samba'
p5585
sS'107203'
p5586
S'Samba'
p5587
sS'116819'
p5588
S'Viennesewaltz'
p5589
sS'107201'
p5590
S'Samba'
p5591
sS'117922'
p5592
S'Viennesewaltz'
p5593
sS'117923'
p5594
S'Foxtrot'
p5595
sS'117920'
p5596
S'Viennesewaltz'
p5597
sS'117921'
p5598
S'Viennesewaltz'
p5599
sS'117926'
p5600
S'Foxtrot'
p5601
sS'117927'
p5602
S'Foxtrot'
p5603
sS'117924'
p5604
S'Foxtrot'
p5605
sS'117925'
p5606
S'Foxtrot'
p5607
sS'117928'
p5608
S'Foxtrot'
p5609
sS'117929'
p5610
S'Foxtrot'
p5611
sS'116521'
p5612
S'Tango'
p5613
sS'116520'
p5614
S'Tango'
p5615
sS'116523'
p5616
S'Tango'
p5617
sS'116522'
p5618
S'Tango'
p5619
sS'116525'
p5620
S'Tango'
p5621
sS'116524'
p5622
S'Tango'
p5623
sS'116527'
p5624
S'Tango'
p5625
sS'116526'
p5626
S'Tango'
p5627
sS'116529'
p5628
S'Tango'
p5629
sS'116528'
p5630
S'Tango'
p5631
sS'116818'
p5632
S'Viennesewaltz'
p5633
sS'107503'
p5634
S'Chacha'
p5635
sS'108030'
p5636
S'Waltz'
p5637
sS'114740'
p5638
S'Viennesewaltz'
p5639
sS'108031'
p5640
S'Waltz'
p5641
sS'104702'
p5642
S'Waltz'
p5643
sS'113310'
p5644
S'Viennesewaltz'
p5645
sS'104703'
p5646
S'Waltz'
p5647
sS'104311'
p5648
S'Foxtrot'
p5649
sS'104310'
p5650
S'Foxtrot'
p5651
sS'109017'
p5652
S'Tango'
p5653
sS'109016'
p5654
S'Tango'
p5655
sS'104315'
p5656
S'Quickstep'
p5657
sS'104314'
p5658
S'Quickstep'
p5659
sS'104317'
p5660
S'Quickstep'
p5661
sS'104316'
p5662
S'Quickstep'
p5663
sS'104701'
p5664
S'Waltz'
p5665
sS'109019'
p5666
S'Tango'
p5667
sS'109018'
p5668
S'Tango'
p5669
sS'110916'
p5670
S'Rumba'
p5671
sS'110917'
p5672
S'Rumba'
p5673
sS'110914'
p5674
S'Rumba'
p5675
sS'110915'
p5676
S'Rumba'
p5677
sS'110440'
p5678
S'Viennesewaltz'
p5679
sS'110913'
p5680
S'Rumba'
p5681
sS'110910'
p5682
S'Chacha'
p5683
sS'110911'
p5684
S'Chacha'
p5685
sS'110918'
p5686
S'Jive'
p5687
sS'110919'
p5688
S'Jive'
p5689
sS'112316'
p5690
S'Rumba'
p5691
sS'106222'
p5692
S'Quickstep'
p5693
sS'106221'
p5694
S'Quickstep'
p5695
sS'106220'
p5696
S'Quickstep'
p5697
sS'118422'
p5698
S'Rumba'
p5699
sS'117104'
p5700
S'Samba'
p5701
sS'117105'
p5702
S'Samba'
p5703
sS'117106'
p5704
S'Samba'
p5705
sS'117107'
p5706
S'Chacha'
p5707
sS'117101'
p5708
S'Samba'
p5709
sS'117102'
p5710
S'Samba'
p5711
sS'117103'
p5712
S'Samba'
p5713
sS'117108'
p5714
S'Chacha'
p5715
sS'117109'
p5716
S'Chacha'
p5717
sS'115712'
p5718
S'Quickstep'
p5719
sS'112317'
p5720
S'Rumba'
p5721
sS'118423'
p5722
S'Rumba'
p5723
sS'115838'
p5724
S'Quickstep'
p5725
sS'106317'
p5726
S'Jive'
p5727
sS'106316'
p5728
S'Jive'
p5729
sS'106315'
p5730
S'Rumba'
p5731
sS'106314'
p5732
S'Rumba'
p5733
sS'106313'
p5734
S'Rumba'
p5735
sS'106312'
p5736
S'Rumba'
p5737
sS'106311'
p5738
S'Rumba'
p5739
sS'106310'
p5740
S'Chacha'
p5741
sS'111503'
p5742
S'Samba'
p5743
sS'110424'
p5744
S'Waltz'
p5745
sS'106319'
p5746
S'Jive'
p5747
sS'106318'
p5748
S'Jive'
p5749
sS'110425'
p5750
S'Waltz'
p5751
sS'116519'
p5752
S'Tango'
p5753
sS'117210'
p5754
S'Rumba'
p5755
sS'117211'
p5756
S'Samba'
p5757
sS'117212'
p5758
S'Samba'
p5759
sS'117213'
p5760
S'Samba'
p5761
sS'117214'
p5762
S'Samba'
p5763
sS'117215'
p5764
S'Rumba'
p5765
sS'117216'
p5766
S'Samba'
p5767
sS'117217'
p5768
S'Rumba'
p5769
sS'113009'
p5770
S'Waltz'
p5771
sS'117219'
p5772
S'Samba'
p5773
sS'116515'
p5774
S'Tango'
p5775
sS'115308'
p5776
S'Waltz'
p5777
sS'115309'
p5778
S'Waltz'
p5779
sS'113221'
p5780
S'Jive'
p5781
sS'113220'
p5782
S'Jive'
p5783
sS'113222'
p5784
S'Jive'
p5785
sS'104908'
p5786
S'Viennesewaltz'
p5787
sS'117317'
p5788
S'Foxtrot'
p5789
sS'106003'
p5790
S'Samba'
p5791
sS'106002'
p5792
S'Samba'
p5793
sS'106001'
p5794
S'Samba'
p5795
sS'116229'
p5796
S'Foxtrot'
p5797
sS'106007'
p5798
S'Chacha'
p5799
sS'106006'
p5800
S'Chacha'
p5801
sS'106005'
p5802
S'Chacha'
p5803
sS'106004'
p5804
S'Samba'
p5805
sS'101907'
p5806
S'Viennesewaltz'
p5807
sS'101906'
p5808
S'Tango'
p5809
sS'106009'
p5810
S'Rumba'
p5811
sS'110429'
p5812
S'Waltz'
p5813
sS'101903'
p5814
S'Waltz'
p5815
sS'101902'
p5816
S'Waltz'
p5817
sS'101901'
p5818
S'Waltz'
p5819
sS'114001'
p5820
S'Waltz'
p5821
sS'114002'
p5822
S'Waltz'
p5823
sS'114003'
p5824
S'Waltz'
p5825
sS'113139'
p5826
S'Quickstep'
p5827
sS'112439'
p5828
S'Jive'
p5829
sS'113643'
p5830
S'Samba'
p5831
sS'113642'
p5832
S'Jive'
p5833
sS'113641'
p5834
S'Jive'
p5835
sS'113640'
p5836
S'Jive'
p5837
sS'113131'
p5838
S'Foxtrot'
p5839
sS'113130'
p5840
S'Foxtrot'
p5841
sS'113133'
p5842
S'Quickstep'
p5843
sS'113132'
p5844
S'Quickstep'
p5845
sS'108621'
p5846
S'Rumba'
p5847
sS'113822'
p5848
S'Rumba'
p5849
sS'108623'
p5850
S'Rumba'
p5851
sS'108622'
p5852
S'Rumba'
p5853
sS'113827'
p5854
S'Rumba'
p5855
sS'108624'
p5856
S'Rumba'
p5857
sS'108627'
p5858
S'Rumba'
p5859
sS'108626'
p5860
S'Rumba'
p5861
sS'112510'
p5862
S'Chacha'
p5863
sS'116226'
p5864
S'Foxtrot'
p5865
sS'113829'
p5866
S'Rumba'
p5867
sS'113828'
p5868
S'Rumba'
p5869
sS'112514'
p5870
S'Samba'
p5871
sS'112515'
p5872
S'Samba'
p5873
sS'112516'
p5874
S'Samba'
p5875
sS'116227'
p5876
S'Foxtrot'
p5877
sS'116813'
p5878
S'Waltz'
p5879
sS'113737'
p5880
S'Tango'
p5881
sS'113736'
p5882
S'Tango'
p5883
sS'113735'
p5884
S'Tango'
p5885
sS'113734'
p5886
S'Tango'
p5887
sS'113733'
p5888
S'Viennesewaltz'
p5889
sS'113732'
p5890
S'Viennesewaltz'
p5891
sS'113731'
p5892
S'Waltz'
p5893
sS'113730'
p5894
S'Waltz'
p5895
sS'112604'
p5896
S'Waltz'
p5897
sS'112605'
p5898
S'Waltz'
p5899
sS'112606'
p5900
S'Waltz'
p5901
sS'112607'
p5902
S'Waltz'
p5903
sS'112601'
p5904
S'Waltz'
p5905
sS'113739'
p5906
S'Tango'
p5907
sS'113738'
p5908
S'Tango'
p5909
sS'114439'
p5910
S'Quickstep'
p5911
sS'114438'
p5912
S'Quickstep'
p5913
sS'113919'
p5914
S'Chacha'
p5915
sS'113918'
p5916
S'Chacha'
p5917
sS'113917'
p5918
S'Chacha'
p5919
sS'113916'
p5920
S'Chacha'
p5921
sS'113915'
p5922
S'Chacha'
p5923
sS'113914'
p5924
S'Chacha'
p5925
sS'113913'
p5926
S'Chacha'
p5927
sS'113912'
p5928
S'Chacha'
p5929
sS'113911'
p5930
S'Chacha'
p5931
sS'113910'
p5932
S'Samba'
p5933
sS'113516'
p5934
S'Tango'
p5935
sS'112839'
p5936
S'Tango'
p5937
sS'115928'
p5938
S'Rumba'
p5939
sS'115929'
p5940
S'Rumba'
p5941
sS'118724'
p5942
S'Waltz'
p5943
sS'109808'
p5944
S'Samba'
p5945
sS'109809'
p5946
S'Samba'
p5947
sS'109806'
p5948
S'Samba'
p5949
sS'109807'
p5950
S'Samba'
p5951
sS'109804'
p5952
S'Samba'
p5953
sS'109805'
p5954
S'Samba'
p5955
sS'109802'
p5956
S'Samba'
p5957
sS'109803'
p5958
S'Samba'
p5959
sS'112838'
p5960
S'Tango'
p5961
sS'109801'
p5962
S'Samba'
p5963
sS'112118'
p5964
S'Jive'
p5965
sS'107012'
p5966
S'Rumba'
p5967
sS'107011'
p5968
S'Rumba'
p5969
sS'114912'
p5970
S'Viennesewaltz'
p5971
sS'114913'
p5972
S'Viennesewaltz'
p5973
sS'114910'
p5974
S'Tango'
p5975
sS'107010'
p5976
S'Rumba'
p5977
sS'106818'
p5978
S'Jive'
p5979
sS'106819'
p5980
S'Jive'
p5981
sS'114914'
p5982
S'Viennesewaltz'
p5983
sS'114915'
p5984
S'Foxtrot'
p5985
sS'106814'
p5986
S'Rumba'
p5987
sS'108513'
p5988
S'Chacha'
p5989
sS'114918'
p5990
S'Foxtrot'
p5991
sS'106817'
p5992
S'Jive'
p5993
sS'106810'
p5994
S'Chacha'
p5995
sS'106811'
p5996
S'Chacha'
p5997
sS'106812'
p5998
S'Rumba'
p5999
sS'107016'
p6000
S'Jive'
p6001
sS'113302'
p6002
S'Waltz'
p6003
sS'108511'
p6004
S'Chacha'
p6005
sS'118830'
p6006
S'Rumba'
p6007
sS'108510'
p6008
S'Samba'
p6009
sS'115205'
p6010
S'Chacha'
p6011
sS'115204'
p6012
S'Chacha'
p6013
sS'115207'
p6014
S'Chacha'
p6015
sS'115206'
p6016
S'Chacha'
p6017
sS'115201'
p6018
S'Chacha'
p6019
sS'115203'
p6020
S'Chacha'
p6021
sS'115202'
p6022
S'Chacha'
p6023
sS'113306'
p6024
S'Tango'
p6025
sS'107308'
p6026
S'Waltz'
p6027
sS'115209'
p6028
S'Chacha'
p6029
sS'115208'
p6030
S'Chacha'
p6031
sS'113307'
p6032
S'Tango'
p6033
sS'105914'
p6034
S'Quickstep'
p6035
sS'109718'
p6036
S'Rumba'
p6037
sS'109719'
p6038
S'Rumba'
p6039
sS'105910'
p6040
S'Foxtrot'
p6041
sS'105911'
p6042
S'Quickstep'
p6043
sS'105912'
p6044
S'Quickstep'
p6045
sS'105913'
p6046
S'Quickstep'
p6047
sS'109712'
p6048
S'Rumba'
p6049
sS'109713'
p6050
S'Jive'
p6051
sS'109710'
p6052
S'Rumba'
p6053
sS'109711'
p6054
S'Rumba'
p6055
sS'109716'
p6056
S'Samba'
p6057
sS'109717'
p6058
S'Chacha'
p6059
sS'109714'
p6060
S'Jive'
p6061
sS'109715'
p6062
S'Jive'
p6063
sS'117540'
p6064
S'Viennesewaltz'
p6065
sS'110709'
p6066
S'Chacha'
p6067
sS'110708'
p6068
S'Samba'
p6069
sS'114828'
p6070
S'Rumba'
p6071
sS'114829'
p6072
S'Rumba'
p6073
sS'114826'
p6074
S'Rumba'
p6075
sS'114827'
p6076
S'Rumba'
p6077
sS'114824'
p6078
S'Rumba'
p6079
sS'114825'
p6080
S'Rumba'
p6081
sS'114822'
p6082
S'Rumba'
p6083
sS'114823'
p6084
S'Rumba'
p6085
sS'114820'
p6086
S'Chacha'
p6087
sS'114821'
p6088
S'Rumba'
p6089
sS'117739'
p6090
S'Quickstep'
p6091
sS'117738'
p6092
S'Quickstep'
p6093
sS'117733'
p6094
S'Quickstep'
p6095
sS'117732'
p6096
S'Foxtrot'
p6097
sS'117731'
p6098
S'Foxtrot'
p6099
sS'117730'
p6100
S'Foxtrot'
p6101
sS'117737'
p6102
S'Quickstep'
p6103
sS'117736'
p6104
S'Quickstep'
p6105
sS'117735'
p6106
S'Quickstep'
p6107
sS'117734'
p6108
S'Quickstep'
p6109
sS'109622'
p6110
S'Quickstep'
p6111
sS'109623'
p6112
S'Waltz'
p6113
sS'109620'
p6114
S'Viennesewaltz'
p6115
sS'109621'
p6116
S'Foxtrot'
p6117
sS'111502'
p6118
S'Samba'
p6119
sS'111208'
p6120
S'Samba'
p6121
sS'107219'
p6122
S'Rumba'
p6123
sS'107218'
p6124
S'Rumba'
p6125
sS'107215'
p6126
S'Samba'
p6127
sS'107214'
p6128
S'Jive'
p6129
sS'107217'
p6130
S'Chacha'
p6131
sS'107216'
p6132
S'Chacha'
p6133
sS'107211'
p6134
S'Rumba'
p6135
sS'107210'
p6136
S'Rumba'
p6137
sS'107213'
p6138
S'Jive'
p6139
sS'107212'
p6140
S'Jive'
p6141
sS'117931'
p6142
S'Foxtrot'
p6143
sS'117930'
p6144
S'Foxtrot'
p6145
sS'117933'
p6146
S'Foxtrot'
p6147
sS'117932'
p6148
S'Foxtrot'
p6149
sS'117935'
p6150
S'Quickstep'
p6151
sS'117934'
p6152
S'Foxtrot'
p6153
sS'117937'
p6154
S'Quickstep'
p6155
sS'117936'
p6156
S'Quickstep'
p6157
sS'117939'
p6158
S'Quickstep'
p6159
sS'117938'
p6160
S'Quickstep'
p6161
sS'116518'
p6162
S'Tango'
p6163
sS'117022'
p6164
S'Jive'
p6165
sS'117021'
p6166
S'Jive'
p6167
sS'117020'
p6168
S'Jive'
p6169
sS'116514'
p6170
S'Tango'
p6171
sS'117840'
p6172
S'Jive'
p6173
sS'116516'
p6174
S'Tango'
p6175
sS'116517'
p6176
S'Tango'
p6177
sS'116510'
p6178
S'Tango'
p6179
sS'116511'
p6180
S'Tango'
p6181
sS'116512'
p6182
S'Tango'
p6183
sS'116513'
p6184
S'Tango'
p6185
sS'111506'
p6186
S'Samba'
p6187
sS'111507'
p6188
S'Samba'
p6189
sS'111504'
p6190
S'Samba'
p6191
sS'111505'
p6192
S'Samba'
p6193
sS'114004'
p6194
S'Waltz'
p6195
sS'114005'
p6196
S'Waltz'
p6197
sS'114006'
p6198
S'Waltz'
p6199
sS'111501'
p6200
S'Samba'
p6201
sS'114008'
p6202
S'Tango'
p6203
sS'114009'
p6204
S'Tango'
p6205
sS'111508'
p6206
S'Samba'
p6207
sS'111509'
p6208
S'Samba'
p6209
sS'109020'
p6210
S'Tango'
p6211
sS'101208'
p6212
S'Chacha'
p6213
sS'101209'
p6214
S'Rumba'
p6215
sS'101204'
p6216
S'Samba'
p6217
sS'101205'
p6218
S'Chacha'
p6219
sS'101206'
p6220
S'Chacha'
p6221
sS'101207'
p6222
S'Chacha'
p6223
sS'101201'
p6224
S'Samba'
p6225
sS'101202'
p6226
S'Samba'
p6227
sS'101203'
p6228
S'Samba'
p6229
sS'110905'
p6230
S'Samba'
p6231
sS'110904'
p6232
S'Samba'
p6233
sS'110907'
p6234
S'Chacha'
p6235
sS'110906'
p6236
S'Samba'
p6237
sS'110901'
p6238
S'Samba'
p6239
sS'110903'
p6240
S'Samba'
p6241
sS'110902'
p6242
S'Samba'
p6243
sS'110909'
p6244
S'Chacha'
p6245
sS'110908'
p6246
S'Chacha'
p6247
sS'112830'
p6248
S'Waltz'
p6249
sS'111705'
p6250
S'Chacha'
p6251
sS'113303'
p6252
S'Waltz'
p6253
sS'117113'
p6254
S'Chacha'
p6255
sS'117112'
p6256
S'Chacha'
p6257
sS'117111'
p6258
S'Chacha'
p6259
sS'117110'
p6260
S'Chacha'
p6261
sS'117117'
p6262
S'Rumba'
p6263
sS'117116'
p6264
S'Rumba'
p6265
sS'117115'
p6266
S'Rumba'
p6267
sS'117114'
p6268
S'Rumba'
p6269
sS'117119'
p6270
S'Rumba'
p6271
sS'108636'
p6272
S'Jive'
p6273
sS'112837'
p6274
S'Tango'
p6275
sS'118116'
p6276
S'Foxtrot'
p6277
sS'118117'
p6278
S'Foxtrot'
p6279
sS'118114'
p6280
S'Viennesewaltz'
p6281
sS'117118'
p6282
S'Rumba'
p6283
sS'118112'
p6284
S'Viennesewaltz'
p6285
sS'118113'
p6286
S'Viennesewaltz'
p6287
sS'118110'
p6288
S'Tango'
p6289
sS'118111'
p6290
S'Viennesewaltz'
p6291
sS'111703'
p6292
S'Samba'
p6293
sS'118118'
p6294
S'Foxtrot'
p6295
sS'118119'
p6296
S'Quickstep'
p6297
sS'101110'
p6298
S'Rumba'
p6299
sS'101111'
p6300
S'Rumba'
p6301
sS'101112'
p6302
S'Rumba'
p6303
sS'101113'
p6304
S'Jive'
p6305
sS'101114'
p6306
S'Jive'
p6307
sS'101115'
p6308
S'Jive'
p6309
sS'101116'
p6310
S'Jive'
p6311
sS'113301'
p6312
S'Waltz'
p6313
sS'111709'
p6314
S'Rumba'
p6315
sS'118519'
p6316
S'Jive'
p6317
sS'118115'
p6318
S'Foxtrot'
p6319
sS'110912'
p6320
S'Chacha'
p6321
sS'112835'
p6322
S'Tango'
p6323
sS'117402'
p6324
S'Samba'
p6325
sS'107307'
p6326
S'Waltz'
p6327
sS'113038'
p6328
S'Quickstep'
p6329
sS'113039'
p6330
S'Quickstep'
p6331
sS'117209'
p6332
S'Samba'
p6333
sS'118409'
p6334
S'Samba'
p6335
sS'117207'
p6336
S'Rumba'
p6337
sS'117206'
p6338
S'Samba'
p6339
sS'113036'
p6340
S'Quickstep'
p6341
sS'113037'
p6342
S'Quickstep'
p6343
sS'117203'
p6344
S'Samba'
p6345
sS'117202'
p6346
S'Samba'
p6347
sS'111408'
p6348
S'Waltz'
p6349
sS'113033'
p6350
S'Quickstep'
p6351
sS'113511'
p6352
S'Waltz'
p6353
sS'104505'
p6354
S'Tango'
p6355
sS'104506'
p6356
S'Tango'
p6357
sS'107304'
p6358
S'Waltz'
p6359
sS'104501'
p6360
S'Waltz'
p6361
sS'112834'
p6362
S'Tango'
p6363
sS'104503'
p6364
S'Waltz'
p6365
sS'104508'
p6366
S'Viennesewaltz'
p6367
sS'104509'
p6368
S'Foxtrot'
p6369
sS'113944'
p6370
S'Jive'
p6371
sS'112803'
p6372
S'Foxtrot'
p6373
sS'112801'
p6374
S'Foxtrot'
p6375
sS'118401'
p6376
S'Samba'
p6377
sS'113940'
p6378
S'Jive'
p6379
sS'117218'
p6380
S'Chacha'
p6381
sS'104912'
p6382
S'Foxtrot'
p6383
sS'116240'
p6384
S'Quickstep'
p6385
sS'116241'
p6386
S'Quickstep'
p6387
sS'118403'
p6388
S'Samba'
p6389
sS'104911'
p6390
S'Foxtrot'
p6391
sS'104910'
p6392
S'Foxtrot'
p6393
sS'113108'
p6394
S'Waltz'
p6395
sS'113109'
p6396
S'Waltz'
p6397
sS'107309'
p6398
S'Waltz'
p6399
sS'112414'
p6400
S'Chacha'
p6401
sS'113101'
p6402
S'Waltz'
p6403
sS'113102'
p6404
S'Waltz'
p6405
sS'114428'
p6406
S'Foxtrot'
p6407
sS'113104'
p6408
S'Waltz'
p6409
sS'113105'
p6410
S'Waltz'
p6411
sS'112831'
p6412
S'Waltz'
p6413
sS'113107'
p6414
S'Waltz'
p6415
sS'112416'
p6416
S'Chacha'
p6417
sS'108618'
p6418
S'Samba'
p6419
sS'108619'
p6420
S'Samba'
p6421
sS'109411'
p6422
S'Viennesewaltz'
p6423
sS'108614'
p6424
S'Samba'
p6425
sS'108615'
p6426
S'Samba'
p6427
sS'108616'
p6428
S'Samba'
p6429
sS'108617'
p6430
S'Samba'
p6431
sS'108610'
p6432
S'Chacha'
p6433
sS'108611'
p6434
S'Samba'
p6435
sS'108612'
p6436
S'Samba'
p6437
sS'108613'
p6438
S'Samba'
p6439
sS'112413'
p6440
S'Chacha'
p6441
sS'114007'
p6442
S'Tango'
p6443
sS'112412'
p6444
S'Chacha'
p6445
sS'106108'
p6446
S'Samba'
p6447
sS'106109'
p6448
S'Samba'
p6449
sS'111404'
p6450
S'Waltz'
p6451
sS'106102'
p6452
S'Chacha'
p6453
sS'106103'
p6454
S'Chacha'
p6455
sS'111205'
p6456
S'Samba'
p6457
sS'106101'
p6458
S'Chacha'
p6459
sS'106106'
p6460
S'Samba'
p6461
sS'106107'
p6462
S'Samba'
p6463
sS'106104'
p6464
S'Chacha'
p6465
sS'106105'
p6466
S'Chacha'
p6467
sS'113214'
p6468
S'Rumba'
p6469
sS'113215'
p6470
S'Rumba'
p6471
sS'102618'
p6472
S'Quickstep'
p6473
sS'102619'
p6474
S'Quickstep'
p6475
sS'113210'
p6476
S'Chacha'
p6477
sS'113211'
p6478
S'Chacha'
p6479
sS'113212'
p6480
S'Rumba'
p6481
sS'113213'
p6482
S'Rumba'
p6483
sS'112613'
p6484
S'Tango'
p6485
sS'102613'
p6486
S'Viennesewaltz'
p6487
sS'102610'
p6488
S'Tango'
p6489
sS'112610'
p6490
S'Waltz'
p6491
sS'112617'
p6492
S'Tango'
p6493
sS'112616'
p6494
S'Tango'
p6495
sS'112615'
p6496
S'Tango'
p6497
sS'112614'
p6498
S'Tango'
p6499
sS'115340'
p6500
S'Viennesewaltz'
p6501
sS'106616'
p6502
S'Quickstep'
p6503
sS'106617'
p6504
S'Quickstep'
p6505
sS'106614'
p6506
S'Foxtrot'
p6507
sS'106615'
p6508
S'Quickstep'
p6509
sS'106612'
p6510
S'Foxtrot'
p6511
sS'106613'
p6512
S'Foxtrot'
p6513
sS'106610'
p6514
S'Foxtrot'
p6515
sS'110720'
p6516
S'Rumba'
p6517
sS'109915'
p6518
S'Quickstep'
p6519
sS'115740'
p6520
S'Tango'
p6521
sS'106618'
p6522
S'Quickstep'
p6523
sS'106619'
p6524
S'Viennesewaltz'
p6525
sS'112507'
p6526
S'Chacha'
p6527
sS'112506'
p6528
S'Chacha'
p6529
sS'112505'
p6530
S'Chacha'
p6531
sS'112504'
p6532
S'Chacha'
p6533
sS'112503'
p6534
S'Chacha'
p6535
sS'112502'
p6536
S'Chacha'
p6537
sS'112501'
p6538
S'Chacha'
p6539
sS'113825'
p6540
S'Rumba'
p6541
sS'112509'
p6542
S'Chacha'
p6543
sS'112508'
p6544
S'Chacha'
p6545
sS'108816'
p6546
S'Chacha'
p6547
sS'108817'
p6548
S'Chacha'
p6549
sS'108814'
p6550
S'Chacha'
p6551
sS'108815'
p6552
S'Chacha'
p6553
sS'108812'
p6554
S'Chacha'
p6555
sS'108813'
p6556
S'Chacha'
p6557
sS'108810'
p6558
S'Samba'
p6559
sS'108811'
p6560
S'Chacha'
p6561
sS'109815'
p6562
S'Chacha'
p6563
sS'109814'
p6564
S'Chacha'
p6565
sS'109817'
p6566
S'Chacha'
p6567
sS'110726'
p6568
S'Rumba'
p6569
sS'109811'
p6570
S'Samba'
p6571
sS'109810'
p6572
S'Samba'
p6573
sS'108818'
p6574
S'Chacha'
p6575
sS'108819'
p6576
S'Chacha'
p6577
sS'109819'
p6578
S'Chacha'
p6579
sS'101909'
p6580
S'Viennesewaltz'
p6581
sS'114901'
p6582
S'Waltz'
p6583
sS'106809'
p6584
S'Chacha'
p6585
sS'106808'
p6586
S'Chacha'
p6587
sS'114905'
p6588
S'Waltz'
p6589
sS'114904'
p6590
S'Waltz'
p6591
sS'114907'
p6592
S'Tango'
p6593
sS'114906'
p6594
S'Waltz'
p6595
sS'106803'
p6596
S'Samba'
p6597
sS'106802'
p6598
S'Samba'
p6599
sS'106801'
p6600
S'Samba'
p6601
sS'106807'
p6602
S'Chacha'
p6603
sS'106806'
p6604
S'Samba'
p6605
sS'106805'
p6606
S'Samba'
p6607
sS'106804'
p6608
S'Samba'
p6609
sS'112906'
p6610
S'Chacha'
p6611
sS'109818'
p6612
S'Chacha'
p6613
sS'101908'
p6614
S'Viennesewaltz'
p6615
sS'118717'
p6616
S'Quickstep'
p6617
sS'109816'
p6618
S'Chacha'
p6619
sS'110817'
p6620
S'Rumba'
p6621
sS'115230'
p6622
S'Rumba'
p6623
sS'117711'
p6624
S'Tango'
p6625
sS'115233'
p6626
S'Jive'
p6627
sS'115234'
p6628
S'Jive'
p6629
sS'115235'
p6630
S'Jive'
p6631
sS'115236'
p6632
S'Jive'
p6633
sS'115237'
p6634
S'Jive'
p6635
sS'115238'
p6636
S'Jive'
p6637
sS'115239'
p6638
S'Jive'
p6639
sS'109216'
p6640
S'Foxtrot'
p6641
sS'114909'
p6642
S'Tango'
p6643
sS'105903'
p6644
S'Tango'
p6645
sS'109708'
p6646
S'Chacha'
p6647
sS'105901'
p6648
S'Waltz'
p6649
sS'105907'
p6650
S'Viennesewaltz'
p6651
sS'105906'
p6652
S'Tango'
p6653
sS'105905'
p6654
S'Tango'
p6655
sS'105904'
p6656
S'Tango'
p6657
sS'109701'
p6658
S'Samba'
p6659
sS'105909'
p6660
S'Foxtrot'
p6661
sS'105908'
p6662
S'Foxtrot'
p6663
sS'109705'
p6664
S'Chacha'
p6665
sS'109704'
p6666
S'Samba'
p6667
sS'109707'
p6668
S'Chacha'
p6669
sS'109706'
p6670
S'Chacha'
p6671
sS'108140'
p6672
S'Tango'
p6673
sS'108423'
p6674
S'Chacha'
p6675
sS'114908'
p6676
S'Tango'
p6677
sS'117719'
p6678
S'Viennesewaltz'
p6679
sS'114839'
p6680
S'Jive'
p6681
sS'114838'
p6682
S'Jive'
p6683
sS'114835'
p6684
S'Jive'
p6685
sS'114834'
p6686
S'Jive'
p6687
sS'114837'
p6688
S'Jive'
p6689
sS'114836'
p6690
S'Jive'
p6691
sS'114830'
p6692
S'Rumba'
p6693
sS'114833'
p6694
S'Jive'
p6695
sS'114832'
p6696
S'Jive'
p6697
sS'114123'
p6698
S'Quickstep'
p6699
sS'114122'
p6700
S'Quickstep'
p6701
sS'108422'
p6702
S'Chacha'
p6703
sS'114120'
p6704
S'Quickstep'
p6705
sS'110118'
p6706
S'Waltz'
p6707
sS'114124'
p6708
S'Quickstep'
p6709
sS'110116'
p6710
S'Waltz'
p6711
sS'110117'
p6712
S'Waltz'
p6713
sS'110114'
p6714
S'Waltz'
p6715
sS'110115'
p6716
S'Waltz'
p6717
sS'110112'
p6718
S'Waltz'
p6719
sS'110113'
p6720
S'Waltz'
p6721
sS'110110'
p6722
S'Waltz'
p6723
sS'110111'
p6724
S'Waltz'
p6725
sS'104706'
p6726
S'Tango'
p6727
sS'114903'
p6728
S'Waltz'
p6729
sS'111410'
p6730
S'Waltz'
p6731
sS'118320'
p6732
S'Viennesewaltz'
p6733
sS'111411'
p6734
S'Waltz'
p6735
sS'107220'
p6736
S'Jive'
p6737
sS'107221'
p6738
S'Chacha'
p6739
sS'117208'
p6740
S'Chacha'
p6741
sS'118727'
p6742
S'Waltz'
p6743
sS'118716'
p6744
S'Quickstep'
p6745
sS'101904'
p6746
S'Tango'
p6747
sS'110602'
p6748
S'Waltz'
p6749
sS'113034'
p6750
S'Quickstep'
p6751
sS'111413'
p6752
S'Waltz'
p6753
sS'110606'
p6754
S'Waltz'
p6755
sS'110607'
p6756
S'Waltz'
p6757
sS'110604'
p6758
S'Waltz'
p6759
sS'113035'
p6760
S'Quickstep'
p6761
sS'111414'
p6762
S'Waltz'
p6763
sS'110608'
p6764
S'Waltz'
p6765
sS'110609'
p6766
S'Waltz'
p6767
sS'117205'
p6768
S'Rumba'
p6769
sS'111415'
p6770
S'Tango'
p6771
sS'116509'
p6772
S'Tango'
p6773
sS'117204'
p6774
S'Samba'
p6775
sS'111416'
p6776
S'Tango'
p6777
sS'116503'
p6778
S'Tango'
p6779
sS'113030'
p6780
S'Foxtrot'
p6781
sS'116501'
p6782
S'Tango'
p6783
sS'111417'
p6784
S'Tango'
p6785
sS'116507'
p6786
S'Tango'
p6787
sS'116506'
p6788
S'Tango'
p6789
sS'116505'
p6790
S'Tango'
p6791
sS'113031'
p6792
S'Foxtrot'
p6793
sS'111515'
p6794
S'Chacha'
p6795
sS'111418'
p6796
S'Tango'
p6797
sS'111517'
p6798
S'Chacha'
p6799
sS'111516'
p6800
S'Chacha'
p6801
sS'111511'
p6802
S'Samba'
p6803
sS'111510'
p6804
S'Samba'
p6805
sS'114019'
p6806
S'Quickstep'
p6807
sS'111512'
p6808
S'Chacha'
p6809
sS'114017'
p6810
S'Foxtrot'
p6811
sS'114016'
p6812
S'Foxtrot'
p6813
sS'110020'
p6814
S'Jive'
p6815
sS'114014'
p6816
S'Viennesewaltz'
p6817
sS'114013'
p6818
S'Viennesewaltz'
p6819
sS'111518'
p6820
S'Chacha'
p6821
sS'114011'
p6822
S'Viennesewaltz'
p6823
sS'114010'
p6824
S'Tango'
p6825
sS'100614'
p6826
S'Quickstep'
p6827
sS'104504'
p6828
S'Waltz'
p6829
sS'115834'
p6830
S'Quickstep'
p6831
sS'115835'
p6832
S'Quickstep'
p6833
sS'115832'
p6834
S'Foxtrot'
p6835
sS'100611'
p6836
S'Foxtrot'
p6837
sS'100612'
p6838
S'Foxtrot'
p6839
sS'100613'
p6840
S'Foxtrot'
p6841
sS'118718'
p6842
S'Quickstep'
p6843
sS'101211'
p6844
S'Rumba'
p6845
sS'101210'
p6846
S'Rumba'
p6847
sS'101216'
p6848
S'Jive'
p6849
sS'101215'
p6850
S'Jive'
p6851
sS'101214'
p6852
S'Jive'
p6853
sS'112825'
p6854
S'Waltz'
p6855
sS'104507'
p6856
S'Viennesewaltz'
p6857
sS'104502'
p6858
S'Waltz'
p6859
sS'111412'
p6860
S'Waltz'
p6861
sS'115425'
p6862
S'Tango'
p6863
sS'100616'
p6864
S'Quickstep'
p6865
sS'115424'
p6866
S'Tango'
p6867
sS'110336'
p6868
S'Quickstep'
p6869
sS'110337'
p6870
S'Quickstep'
p6871
sS'110334'
p6872
S'Quickstep'
p6873
sS'110335'
p6874
S'Quickstep'
p6875
sS'110332'
p6876
S'Quickstep'
p6877
sS'110333'
p6878
S'Quickstep'
p6879
sS'110330'
p6880
S'Quickstep'
p6881
sS'110331'
p6882
S'Quickstep'
p6883
sS'110338'
p6884
S'Quickstep'
p6885
sS'110339'
p6886
S'Quickstep'
p6887
sS'101107'
p6888
S'Chacha'
p6889
sS'101106'
p6890
S'Chacha'
p6891
sS'101105'
p6892
S'Chacha'
p6893
sS'101104'
p6894
S'Samba'
p6895
sS'101103'
p6896
S'Samba'
p6897
sS'101102'
p6898
S'Samba'
p6899
sS'101101'
p6900
S'Samba'
p6901
sS'108408'
p6902
S'Samba'
p6903
sS'118109'
p6904
S'Tango'
p6905
sS'118108'
p6906
S'Tango'
p6907
sS'101109'
p6908
S'Rumba'
p6909
sS'101108'
p6910
S'Chacha'
p6911
sS'114902'
p6912
S'Waltz'
p6913
sS'110508'
p6914
S'Tango'
p6915
sS'109813'
p6916
S'Chacha'
p6917
sS'114814'
p6918
S'Chacha'
p6919
sS'109812'
p6920
S'Chacha'
p6921
sS'113029'
p6922
S'Foxtrot'
p6923
sS'113028'
p6924
S'Foxtrot'
p6925
sS'113023'
p6926
S'Foxtrot'
p6927
sS'113022'
p6928
S'Foxtrot'
p6929
sS'113021'
p6930
S'Foxtrot'
p6931
sS'113020'
p6932
S'Viennesewaltz'
p6933
sS'113027'
p6934
S'Foxtrot'
p6935
sS'113026'
p6936
S'Foxtrot'
p6937
sS'113025'
p6938
S'Foxtrot'
p6939
sS'113024'
p6940
S'Foxtrot'
p6941
sS'104513'
p6942
S'Foxtrot'
p6943
sS'104512'
p6944
S'Foxtrot'
p6945
sS'104511'
p6946
S'Foxtrot'
p6947
sS'104510'
p6948
S'Foxtrot'
p6949
sS'104516'
p6950
S'Quickstep'
p6951
sS'104515'
p6952
S'Quickstep'
p6953
sS'104514'
p6954
S'Quickstep'
p6955
sS'107513'
p6956
S'Jive'
p6957
sS'107516'
p6958
S'Jive'
p6959
sS'107514'
p6960
S'Jive'
p6961
sS'107515'
p6962
S'Jive'
p6963
sS'114103'
p6964
S'Waltz'
p6965
sS'118411'
p6966
S'Chacha'
p6967
sS'108429'
p6968
S'Samba'
p6969
sS'108237'
p6970
S'Viennesewaltz'
p6971
sS'109609'
p6972
S'Viennesewaltz'
p6973
sS'104312'
p6974
S'Foxtrot'
p6975
sS'117306'
p6976
S'Quickstep'
p6977
sS'117307'
p6978
S'Quickstep'
p6979
sS'117304'
p6980
S'Quickstep'
p6981
sS'117305'
p6982
S'Quickstep'
p6983
sS'117302'
p6984
S'Quickstep'
p6985
sS'117303'
p6986
S'Quickstep'
p6987
sS'113111'
p6988
S'Waltz'
p6989
sS'117301'
p6990
S'Quickstep'
p6991
sS'117308'
p6992
S'Quickstep'
p6993
sS'117309'
p6994
S'Quickstep'
p6995
sS'114121'
p6996
S'Quickstep'
p6997
sS'104301'
p6998
S'Waltz'
p6999
sS'113138'
p7000
S'Quickstep'
p7001
sS'108609'
p7002
S'Chacha'
p7003
sS'108608'
p7004
S'Chacha'
p7005
sS'108603'
p7006
S'Chacha'
p7007
sS'108602'
p7008
S'Chacha'
p7009
sS'118820'
p7010
S'Chacha'
p7011
sS'118821'
p7012
S'Chacha'
p7013
sS'118826'
p7014
S'Rumba'
p7015
sS'108606'
p7016
S'Chacha'
p7017
sS'108605'
p7018
S'Chacha'
p7019
sS'108604'
p7020
S'Chacha'
p7021
sS'106119'
p7022
S'Rumba'
p7023
sS'106118'
p7024
S'Samba'
p7025
sS'114104'
p7026
S'Waltz'
p7027
sS'106111'
p7028
S'Rumba'
p7029
sS'106110'
p7030
S'Rumba'
p7031
sS'106113'
p7032
S'Rumba'
p7033
sS'106112'
p7034
S'Rumba'
p7035
sS'106115'
p7036
S'Jive'
p7037
sS'106114'
p7038
S'Jive'
p7039
sS'106117'
p7040
S'Chacha'
p7041
sS'106116'
p7042
S'Jive'
p7043
sS'113203'
p7044
S'Samba'
p7045
sS'113202'
p7046
S'Samba'
p7047
sS'113201'
p7048
S'Samba'
p7049
sS'113207'
p7050
S'Chacha'
p7051
sS'113206'
p7052
S'Samba'
p7053
sS'113205'
p7054
S'Samba'
p7055
sS'113204'
p7056
S'Samba'
p7057
sS'102601'
p7058
S'Waltz'
p7059
sS'115739'
p7060
S'Tango'
p7061
sS'113209'
p7062
S'Chacha'
p7063
sS'113208'
p7064
S'Chacha'
p7065
sS'102605'
p7066
S'Waltz'
p7067
sS'102604'
p7068
S'Waltz'
p7069
sS'102607'
p7070
S'Tango'
p7071
sS'102606'
p7072
S'Tango'
p7073
sS'114107'
p7074
S'Tango'
p7075
sS'112408'
p7076
S'Samba'
p7077
sS'112409'
p7078
S'Samba'
p7079
sS'112406'
p7080
S'Samba'
p7081
sS'100812'
p7082
S'Rumba'
p7083
sS'112404'
p7084
S'Samba'
p7085
sS'112405'
p7086
S'Samba'
p7087
sS'112402'
p7088
S'Samba'
p7089
sS'112403'
p7090
S'Samba'
p7091
sS'112401'
p7092
S'Samba'
p7093
sS'113135'
p7094
S'Quickstep'
p7095
sS'106605'
p7096
S'Waltz'
p7097
sS'106604'
p7098
S'Waltz'
p7099
sS'106607'
p7100
S'Tango'
p7101
sS'106606'
p7102
S'Waltz'
p7103
sS'106601'
p7104
S'Waltz'
p7105
sS'106603'
p7106
S'Waltz'
p7107
sS'106602'
p7108
S'Waltz'
p7109
sS'107732'
p7110
S'Viennesewaltz'
p7111
sS'107733'
p7112
S'Viennesewaltz'
p7113
sS'107730'
p7114
S'Tango'
p7115
sS'107731'
p7116
S'Tango'
p7117
sS'106609'
p7118
S'Tango'
p7119
sS'106608'
p7120
S'Tango'
p7121
sS'107734'
p7122
S'Viennesewaltz'
p7123
sS'107735'
p7124
S'Viennesewaltz'
p7125
sS'113134'
p7126
S'Quickstep'
p7127
sS'114022'
p7128
S'Quickstep'
p7129
sS'109828'
p7130
S'Rumba'
p7131
sS'109829'
p7132
S'Rumba'
p7133
sS'108807'
p7134
S'Samba'
p7135
sS'114916'
p7136
S'Foxtrot'
p7137
sS'108801'
p7138
S'Samba'
p7139
sS'108803'
p7140
S'Samba'
p7141
sS'108802'
p7142
S'Samba'
p7143
sS'109820'
p7144
S'Chacha'
p7145
sS'109821'
p7146
S'Chacha'
p7147
sS'109822'
p7148
S'Rumba'
p7149
sS'109823'
p7150
S'Rumba'
p7151
sS'109824'
p7152
S'Rumba'
p7153
sS'109825'
p7154
S'Rumba'
p7155
sS'109826'
p7156
S'Rumba'
p7157
sS'109827'
p7158
S'Rumba'
p7159
sS'113137'
p7160
S'Quickstep'
p7161
sS'114322'
p7162
S'Jive'
p7163
sS'104705'
p7164
S'Waltz'
p7165
sS'115438'
p7166
S'Tango'
p7167
sS'118514'
p7168
S'Rumba'
p7169
sS'107640'
p7170
S'Jive'
p7171
sS'107641'
p7172
S'Jive'
p7173
sS'106740'
p7174
S'Viennesewaltz'
p7175
sS'106741'
p7176
S'Viennesewaltz'
p7177
sS'118515'
p7178
S'Rumba'
p7179
sS'111201'
p7180
S'Samba'
p7181
sS'111614'
p7182
S'Rumba'
p7183
sS'104302'
p7184
S'Waltz'
p7185
sS'111218'
p7186
S'Chacha'
p7187
sS'111219'
p7188
S'Chacha'
p7189
sS'115229'
p7190
S'Rumba'
p7191
sS'115228'
p7192
S'Rumba'
p7193
sS'111212'
p7194
S'Chacha'
p7195
sS'111213'
p7196
S'Chacha'
p7197
sS'115225'
p7198
S'Rumba'
p7199
sS'115224'
p7200
S'Rumba'
p7201
sS'118440'
p7202
S'Jive'
p7203
sS'118441'
p7204
S'Jive'
p7205
sS'111214'
p7206
S'Chacha'
p7207
sS'111215'
p7208
S'Chacha'
p7209
sS'107349'
p7210
S'Quickstep'
p7211
sS'107348'
p7212
S'Quickstep'
p7213
sS'107343'
p7214
S'Quickstep'
p7215
sS'107342'
p7216
S'Viennesewaltz'
p7217
sS'107341'
p7218
S'Viennesewaltz'
p7219
sS'107340'
p7220
S'Viennesewaltz'
p7221
sS'107347'
p7222
S'Quickstep'
p7223
sS'107346'
p7224
S'Quickstep'
p7225
sS'107345'
p7226
S'Quickstep'
p7227
sS'107344'
p7228
S'Quickstep'
p7229
sS'113103'
p7230
S'Waltz'
p7231
sS'113943'
p7232
S'Jive'
p7233
sS'109001'
p7234
S'Tango'
p7235
sS'111211'
p7236
S'Samba'
p7237
sS'114808'
p7238
S'Samba'
p7239
sS'114809'
p7240
S'Samba'
p7241
sS'113106'
p7242
S'Waltz'
p7243
sS'111513'
p7244
S'Chacha'
p7245
sS'114801'
p7246
S'Samba'
p7247
sS'114802'
p7248
S'Samba'
p7249
sS'114803'
p7250
S'Samba'
p7251
sS'114804'
p7252
S'Samba'
p7253
sS'114805'
p7254
S'Samba'
p7255
sS'114806'
p7256
S'Samba'
p7257
sS'114807'
p7258
S'Samba'
p7259
sS'111326'
p7260
S'Waltz'
p7261
sS'104801'
p7262
S'Waltz'
p7263
sS'111324'
p7264
S'Waltz'
p7265
sS'111325'
p7266
S'Waltz'
p7267
sS'109419'
p7268
S'Quickstep'
p7269
sS'110108'
p7270
S'Waltz'
p7271
sS'111320'
p7272
S'Quickstep'
p7273
sS'111321'
p7274
S'Waltz'
p7275
sS'110105'
p7276
S'Waltz'
p7277
sS'110104'
p7278
S'Waltz'
p7279
sS'110107'
p7280
S'Waltz'
p7281
sS'110106'
p7282
S'Waltz'
p7283
sS'110101'
p7284
S'Waltz'
p7285
sS'104803'
p7286
S'Waltz'
p7287
sS'110103'
p7288
S'Waltz'
p7289
sS'111329'
p7290
S'Waltz'
p7291
sS'109601'
p7292
S'Waltz'
p7293
sS'109602'
p7294
S'Waltz'
p7295
sS'109603'
p7296
S'Waltz'
p7297
sS'109604'
p7298
S'Waltz'
p7299
sS'109605'
p7300
S'Waltz'
p7301
sS'109606'
p7302
S'Tango'
p7303
sS'118335'
p7304
S'Quickstep'
p7305
sS'109608'
p7306
S'Tango'
p7307
sS'112918'
p7308
S'Samba'
p7309
sS'104307'
p7310
S'Viennesewaltz'
p7311
sS'112919'
p7312
S'Samba'
p7313
sS'105808'
p7314
S'Tango'
p7315
sS'105809'
p7316
S'Viennesewaltz'
p7317
sS'105802'
p7318
S'Waltz'
p7319
sS'105803'
p7320
S'Waltz'
p7321
sS'104806'
p7322
S'Tango'
p7323
sS'105806'
p7324
S'Tango'
p7325
sS'105807'
p7326
S'Tango'
p7327
sS'105804'
p7328
S'Waltz'
p7329
sS'105805'
p7330
S'Waltz'
p7331
sS'110611'
p7332
S'Tango'
p7333
sS'110610'
p7334
S'Waltz'
p7335
sS'110613'
p7336
S'Tango'
p7337
sS'110612'
p7338
S'Tango'
p7339
sS'110615'
p7340
S'Tango'
p7341
sS'110614'
p7342
S'Tango'
p7343
sS'110617'
p7344
S'Viennesewaltz'
p7345
sS'104808'
p7346
S'Tango'
p7347
sS'117913'
p7348
S'Tango'
p7349
sS'117912'
p7350
S'Tango'
p7351
sS'117917'
p7352
S'Tango'
p7353
sS'117916'
p7354
S'Tango'
p7355
sS'117915'
p7356
S'Tango'
p7357
sS'117914'
p7358
S'Tango'
p7359
sS'110822'
p7360
S'Rumba'
p7361
sS'113219'
p7362
S'Jive'
p7363
sS'110820'
p7364
S'Rumba'
p7365
sS'112912'
p7366
S'Samba'
p7367
sS'111520'
p7368
S'Chacha'
p7369
sS'111521'
p7370
S'Chacha'
p7371
sS'111522'
p7372
S'Chacha'
p7373
sS'110821'
p7374
S'Rumba'
p7375
sS'111524'
p7376
S'Rumba'
p7377
sS'111525'
p7378
S'Rumba'
p7379
sS'111526'
p7380
S'Rumba'
p7381
sS'111527'
p7382
S'Rumba'
p7383
sS'111528'
p7384
S'Rumba'
p7385
sS'111529'
p7386
S'Rumba'
p7387
sS'112913'
p7388
S'Samba'
p7389
sS'104802'
p7390
S'Waltz'
p7391
sS'115825'
p7392
S'Foxtrot'
p7393
sS'115824'
p7394
S'Foxtrot'
p7395
sS'115827'
p7396
S'Foxtrot'
p7397
sS'115826'
p7398
S'Foxtrot'
p7399
sS'100607'
p7400
S'Tango'
p7401
sS'100606'
p7402
S'Tango'
p7403
sS'115823'
p7404
S'Foxtrot'
p7405
sS'115822'
p7406
S'Foxtrot'
p7407
sS'100609'
p7408
S'Viennesewaltz'
p7409
sS'100608'
p7410
S'Viennesewaltz'
p7411
sS'115829'
p7412
S'Foxtrot'
p7413
sS'115828'
p7414
S'Foxtrot'
p7415
sS'104313'
p7416
S'Foxtrot'
p7417
sS'106521'
p7418
S'Waltz'
p7419
sS'110921'
p7420
S'Jive'
p7421
sS'110920'
p7422
S'Jive'
p7423
sS'116407'
p7424
S'Tango'
p7425
sS'116408'
p7426
S'Tango'
p7427
sS'116409'
p7428
S'Tango'
p7429
sS'110325'
p7430
S'Quickstep'
p7431
sS'110324'
p7432
S'Quickstep'
p7433
sS'110327'
p7434
S'Quickstep'
p7435
sS'110326'
p7436
S'Quickstep'
p7437
sS'110321'
p7438
S'Quickstep'
p7439
sS'110320'
p7440
S'Quickstep'
p7441
sS'110323'
p7442
S'Quickstep'
p7443
sS'110322'
p7444
S'Quickstep'
p7445
sS'112722'
p7446
S'Quickstep'
p7447
sS'108125'
p7448
S'Waltz'
p7449
sS'110329'
p7450
S'Quickstep'
p7451
sS'109418'
p7452
S'Foxtrot'
p7453
sS'111102'
p7454
S'Waltz'
p7455
sS'115136'
p7456
S'Tango'
p7457
sS'111519'
p7458
S'Chacha'
p7459
sS'111101'
p7460
S'Waltz'
p7461
sS'115133'
p7462
S'Tango'
p7463
sS'113305'
p7464
S'Waltz'
p7465
sS'111107'
p7466
S'Tango'
p7467
sS'111104'
p7468
S'Waltz'
p7469
sS'112921'
p7470
S'Rumba'
p7471
sS'117333'
p7472
S'Tango'
p7473
sS'111105'
p7474
S'Waltz'
p7475
sS'116318'
p7476
S'Rumba'
p7477
sS'116319'
p7478
S'Jive'
p7479
sS'116316'
p7480
S'Rumba'
p7481
sS'116317'
p7482
S'Rumba'
p7483
sS'116314'
p7484
S'Rumba'
p7485
sS'116315'
p7486
S'Rumba'
p7487
sS'116312'
p7488
S'Chacha'
p7489
sS'116313'
p7490
S'Rumba'
p7491
sS'116310'
p7492
S'Chacha'
p7493
sS'116311'
p7494
S'Chacha'
p7495
sS'112920'
p7496
S'Samba'
p7497
sS'110428'
p7498
S'Waltz'
p7499
sS'114102'
p7500
S'Waltz'
p7501
sS'101008'
p7502
S'Tango'
p7503
sS'101009'
p7504
S'Viennesewaltz'
p7505
sS'101006'
p7506
S'Tango'
p7507
sS'101007'
p7508
S'Tango'
p7509
sS'101004'
p7510
S'Waltz'
p7511
sS'101005'
p7512
S'Waltz'
p7513
sS'101002'
p7514
S'Waltz'
p7515
sS'101003'
p7516
S'Waltz'
p7517
sS'118009'
p7518
S'Chacha'
p7519
sS'107501'
p7520
S'Chacha'
p7521
sS'104707'
p7522
S'Tango'
p7523
sS'112923'
p7524
S'Rumba'
p7525
sS'107502'
p7526
S'Chacha'
p7527
sS'107505'
p7528
S'Samba'
p7529
sS'107504'
p7530
S'Samba'
p7531
sS'107507'
p7532
S'Rumba'
p7533
sS'107506'
p7534
S'Samba'
p7535
sS'107509'
p7536
S'Rumba'
p7537
sS'107508'
p7538
S'Rumba'
p7539
sS'116508'
p7540
S'Tango'
p7541
sS'104708'
p7542
S'Tango'
p7543
sS'104709'
p7544
S'Tango'
p7545
sS'113405'
p7546
S'Samba'
p7547
sS'105508'
p7548
S'Tango'
p7549
sS'114113'
p7550
S'Viennesewaltz'
p7551
sS'117315'
p7552
S'Foxtrot'
p7553
sS'117314'
p7554
S'Foxtrot'
p7555
sS'116228'
p7556
S'Foxtrot'
p7557
sS'117316'
p7558
S'Foxtrot'
p7559
sS'117311'
p7560
S'Foxtrot'
p7561
sS'117310'
p7562
S'Quickstep'
p7563
sS'117313'
p7564
S'Foxtrot'
p7565
sS'117312'
p7566
S'Foxtrot'
p7567
sS'116222'
p7568
S'Foxtrot'
p7569
sS'116223'
p7570
S'Foxtrot'
p7571
sS'116220'
p7572
S'Viennesewaltz'
p7573
sS'116221'
p7574
S'Viennesewaltz'
p7575
sS'117319'
p7576
S'Foxtrot'
p7577
sS'117318'
p7578
S'Foxtrot'
p7579
sS'116224'
p7580
S'Foxtrot'
p7581
sS'116225'
p7582
S'Foxtrot'
p7583
sS'112618'
p7584
S'Tango'
p7585
sS'118002'
p7586
S'Chacha'
p7587
sS'117602'
p7588
S'Samba'
p7589
sS'118003'
p7590
S'Chacha'
p7591
sS'109002'
p7592
S'Tango'
p7593
sS'118839'
p7594
S'Jive'
p7595
sS'118838'
p7596
S'Jive'
p7597
sS'113308'
p7598
S'Tango'
p7599
sS'113309'
p7600
S'Tango'
p7601
sS'118831'
p7602
S'Rumba'
p7603
sS'118721'
p7604
S'Waltz'
p7605
sS'118833'
p7606
S'Jive'
p7607
sS'118832'
p7608
S'Jive'
p7609
sS'118835'
p7610
S'Jive'
p7611
sS'118834'
p7612
S'Jive'
p7613
sS'118837'
p7614
S'Jive'
p7615
sS'118836'
p7616
S'Jive'
p7617
sS'102612'
p7618
S'Viennesewaltz'
p7619
sS'105506'
p7620
S'Tango'
p7621
sS'107324'
p7622
S'Tango'
p7623
sS'112612'
p7624
S'Waltz'
p7625
sS'117604'
p7626
S'Samba'
p7627
sS'112611'
p7628
S'Waltz'
p7629
sS'116136'
p7630
S'Jive'
p7631
sS'116137'
p7632
S'Jive'
p7633
sS'116134'
p7634
S'Jive'
p7635
sS'116135'
p7636
S'Jive'
p7637
sS'116132'
p7638
S'Jive'
p7639
sS'116133'
p7640
S'Jive'
p7641
sS'116130'
p7642
S'Rumba'
p7643
sS'116131'
p7644
S'Rumba'
p7645
sS'113218'
p7646
S'Jive'
p7647
sS'117401'
p7648
S'Samba'
p7649
sS'116138'
p7650
S'Jive'
p7651
sS'116139'
p7652
S'Jive'
p7653
sS'102614'
p7654
S'Viennesewaltz'
p7655
sS'112927'
p7656
S'Rumba'
p7657
sS'102615'
p7658
S'Foxtrot'
p7659
sS'108702'
p7660
S'Chacha'
p7661
sS'108703'
p7662
S'Chacha'
p7663
sS'113414'
p7664
S'Rumba'
p7665
sS'108701'
p7666
S'Chacha'
p7667
sS'112419'
p7668
S'Chacha'
p7669
sS'112418'
p7670
S'Chacha'
p7671
sS'113410'
p7672
S'Chacha'
p7673
sS'113411'
p7674
S'Chacha'
p7675
sS'112415'
p7676
S'Chacha'
p7677
sS'113115'
p7678
S'Tango'
p7679
sS'108708'
p7680
S'Chacha'
p7681
sS'108709'
p7682
S'Chacha'
p7683
sS'112411'
p7684
S'Samba'
p7685
sS'112410'
p7686
S'Samba'
p7687
sS'113418'
p7688
S'Jive'
p7689
sS'113419'
p7690
S'Jive'
p7691
sS'114117'
p7692
S'Foxtrot'
p7693
sS'118426'
p7694
S'Rumba'
p7695
sS'112926'
p7696
S'Rumba'
p7697
sS'118424'
p7698
S'Rumba'
p7699
sS'107729'
p7700
S'Tango'
p7701
sS'107728'
p7702
S'Tango'
p7703
sS'118425'
p7704
S'Rumba'
p7705
sS'107721'
p7706
S'Foxtrot'
p7707
sS'107720'
p7708
S'Foxtrot'
p7709
sS'107723'
p7710
S'Foxtrot'
p7711
sS'107722'
p7712
S'Foxtrot'
p7713
sS'107725'
p7714
S'Foxtrot'
p7715
sS'107724'
p7716
S'Foxtrot'
p7717
sS'107727'
p7718
S'Foxtrot'
p7719
sS'107726'
p7720
S'Foxtrot'
p7721
sS'108236'
p7722
S'Viennesewaltz'
p7723
sS'108832'
p7724
S'Jive'
p7725
sS'108833'
p7726
S'Jive'
p7727
sS'108834'
p7728
S'Jive'
p7729
sS'108835'
p7730
S'Jive'
p7731
sS'108836'
p7732
S'Jive'
p7733
sS'108837'
p7734
S'Jive'
p7735
sS'107320'
p7736
S'Tango'
p7737
sS'108018'
p7738
S'Foxtrot'
p7739
sS'108019'
p7740
S'Foxtrot'
p7741
sS'108016'
p7742
S'Foxtrot'
p7743
sS'108017'
p7744
S'Foxtrot'
p7745
sS'108014'
p7746
S'Foxtrot'
p7747
sS'108015'
p7748
S'Foxtrot'
p7749
sS'108012'
p7750
S'Foxtrot'
p7751
sS'108013'
p7752
S'Foxtrot'
p7753
sS'108010'
p7754
S'Quickstep'
p7755
sS'108011'
p7756
S'Foxtrot'
p7757
sS'114923'
p7758
S'Quickstep'
p7759
sS'114922'
p7760
S'Quickstep'
p7761
sS'114921'
p7762
S'Quickstep'
p7763
sS'114920'
p7764
S'Quickstep'
p7765
sS'114924'
p7766
S'Quickstep'
p7767
sS'115322'
p7768
S'Foxtrot'
p7769
sS'115323'
p7770
S'Foxtrot'
p7771
sS'115320'
p7772
S'Tango'
p7773
sS'115321'
p7774
S'Foxtrot'
p7775
sS'115326'
p7776
S'Foxtrot'
p7777
sS'115327'
p7778
S'Foxtrot'
p7779
sS'115324'
p7780
S'Foxtrot'
p7781
sS'115325'
p7782
S'Foxtrot'
p7783
sS'115328'
p7784
S'Quickstep'
p7785
sS'115329'
p7786
S'Quickstep'
p7787
sS'107327'
p7788
S'Foxtrot'
p7789
sS'107621'
p7790
S'Chacha'
p7791
sS'114321'
p7792
S'Jive'
p7793
sS'114320'
p7794
S'Jive'
p7795
sS'114323'
p7796
S'Jive'
p7797
sS'109720'
p7798
S'Jive'
p7799
sS'114324'
p7800
S'Jive'
p7801
sS'105503'
p7802
S'Waltz'
p7803
sS'116126'
p7804
S'Rumba'
p7805
sS'108333'
p7806
S'Tango'
p7807
sS'111203'
p7808
S'Samba'
p7809
sS'111202'
p7810
S'Samba'
p7811
sS'100601'
p7812
S'Waltz'
p7813
sS'111204'
p7814
S'Samba'
p7815
sS'111207'
p7816
S'Samba'
p7817
sS'111206'
p7818
S'Samba'
p7819
sS'107323'
p7820
S'Tango'
p7821
sS'108330'
p7822
S'Waltz'
p7823
sS'114817'
p7824
S'Chacha'
p7825
sS'114816'
p7826
S'Chacha'
p7827
sS'114815'
p7828
S'Chacha'
p7829
sS'115836'
p7830
S'Quickstep'
p7831
sS'114813'
p7832
S'Chacha'
p7833
sS'114812'
p7834
S'Chacha'
p7835
sS'114811'
p7836
S'Chacha'
p7837
sS'114810'
p7838
S'Samba'
p7839
sS'108122'
p7840
S'Waltz'
p7841
sS'108123'
p7842
S'Waltz'
p7843
sS'108120'
p7844
S'Quickstep'
p7845
sS'108121'
p7846
S'Quickstep'
p7847
sS'108126'
p7848
S'Waltz'
p7849
sS'108127'
p7850
S'Waltz'
p7851
sS'114819'
p7852
S'Chacha'
p7853
sS'114818'
p7854
S'Chacha'
p7855
sS'109837'
p7856
S'Jive'
p7857
sS'109836'
p7858
S'Jive'
p7859
sS'109835'
p7860
S'Jive'
p7861
sS'109833'
p7862
S'Rumba'
p7863
sS'109832'
p7864
S'Rumba'
p7865
sS'109831'
p7866
S'Rumba'
p7867
sS'109830'
p7868
S'Rumba'
p7869
sS'117201'
p7870
S'Samba'
p7871
sS'109839'
p7872
S'Jive'
p7873
sS'109838'
p7874
S'Jive'
p7875
sS'111335'
p7876
S'Tango'
p7877
sS'115837'
p7878
S'Quickstep'
p7879
sS'111337'
p7880
S'Tango'
p7881
sS'111336'
p7882
S'Tango'
p7883
sS'111331'
p7884
S'Viennesewaltz'
p7885
sS'111330'
p7886
S'Waltz'
p7887
sS'111333'
p7888
S'Tango'
p7889
sS'111332'
p7890
S'Viennesewaltz'
p7891
sS'110130'
p7892
S'Waltz'
p7893
sS'110131'
p7894
S'Waltz'
p7895
sS'110132'
p7896
S'Waltz'
p7897
sS'110133'
p7898
S'Waltz'
p7899
sS'110134'
p7900
S'Waltz'
p7901
sS'111338'
p7902
S'Tango'
p7903
sS'110136'
p7904
S'Waltz'
p7905
sS'107209'
p7906
S'Rumba'
p7907
sS'108625'
p7908
S'Rumba'
p7909
sS'117428'
p7910
S'Rumba'
p7911
sS'109619'
p7912
S'Tango'
p7913
sS'109618'
p7914
S'Waltz'
p7915
sS'109617'
p7916
S'Quickstep'
p7917
sS'109616'
p7918
S'Quickstep'
p7919
sS'109615'
p7920
S'Quickstep'
p7921
sS'109614'
p7922
S'Foxtrot'
p7923
sS'109613'
p7924
S'Foxtrot'
p7925
sS'109612'
p7926
S'Foxtrot'
p7927
sS'109611'
p7928
S'Viennesewaltz'
p7929
sS'109610'
p7930
S'Viennesewaltz'
p7931
sS'105819'
p7932
S'Quickstep'
p7933
sS'105818'
p7934
S'Quickstep'
p7935
sS'108234'
p7936
S'Tango'
p7937
sS'108235'
p7938
S'Tango'
p7939
sS'108232'
p7940
S'Tango'
p7941
sS'108233'
p7942
S'Tango'
p7943
sS'108230'
p7944
S'Tango'
p7945
sS'108231'
p7946
S'Tango'
p7947
sS'105811'
p7948
S'Viennesewaltz'
p7949
sS'105810'
p7950
S'Viennesewaltz'
p7951
sS'105813'
p7952
S'Foxtrot'
p7953
sS'106611'
p7954
S'Foxtrot'
p7955
sS'105815'
p7956
S'Foxtrot'
p7957
sS'105814'
p7958
S'Foxtrot'
p7959
sS'105817'
p7960
S'Quickstep'
p7961
sS'105816'
p7962
S'Quickstep'
p7963
sS'110628'
p7964
S'Foxtrot'
p7965
sS'110629'
p7966
S'Foxtrot'
p7967
sS'112806'
p7968
S'Foxtrot'
p7969
sS'110624'
p7970
S'Foxtrot'
p7971
sS'110625'
p7972
S'Foxtrot'
p7973
sS'110626'
p7974
S'Foxtrot'
p7975
sS'110627'
p7976
S'Foxtrot'
p7977
sS'110620'
p7978
S'Viennesewaltz'
p7979
sS'110621'
p7980
S'Viennesewaltz'
p7981
sS'110622'
p7982
S'Viennesewaltz'
p7983
sS'110623'
p7984
S'Foxtrot'
p7985
s.